(dp1
S'description'
p2
(dp3
S'type'
p4
S'text'
p5
sS'sortable'
p6
I6
sS'sql'
p7
S'TEXT'
p8
ssS'sugars_g'
p9
(dp10
g4
S'string'
p11
sg6
I17
sg7
S'CHAR(512)'
p12
ssS'saturated_fat_g'
p13
(dp14
g4
g11
sg6
I11
sg7
S'CHAR(512)'
p15
ssS'brand'
p16
(dp17
g4
g11
sg6
I5
sg7
S'CHAR(512)'
p18
ssS'sugars'
p19
(dp20
S'sortable'
p21
I17
sS'type'
p22
S'string'
p23
sS'sql'
p24
S'CHAR(512)'
p25
ssS'dietary_fiber_g'
p26
(dp27
g4
g11
sg6
I16
sg7
S'CHAR(512)'
p28
ssS'trans_fat'
p29
(dp30
g21
I12
sg22
g23
sg24
S'CHAR(512)'
p31
ssS'carbohydrates_g'
p32
(dp33
g4
g11
sg6
I15
sg7
S'CHAR(512)'
p34
ssS'saturated_fat'
p35
(dp36
g21
I11
sg22
g23
sg24
S'CHAR(512)'
p37
ssS'protein'
p38
(dp39
g21
I18
sg22
g23
sg24
S'CHAR(512)'
p40
ssS'id'
p41
(dp42
g4
S'id'
p43
sg6
I1
sg7
S'INTEGER PRIMARY KEY AUTOINCREMENT'
p44
ssS'trans_fat_g'
p45
(dp46
g4
g11
sg6
I12
sg7
S'CHAR(512)'
p47
ssS'calories_from_fat'
p48
(dp49
g4
g11
sg6
I9
sg7
S'CHAR(512)'
p50
ssS'sodium_mg'
p51
(dp52
g4
g11
sg6
I14
sg7
S'CHAR(512)'
p53
ssS'sodium'
p54
(dp55
g21
I14
sg22
g23
sg24
S'CHAR(512)'
p56
ssS'carbohydrates'
p57
(dp58
g21
I15
sg22
g23
sg24
S'CHAR(512)'
p59
ssS'calories'
p60
(dp61
g4
g11
sg6
I8
sg7
S'CHAR(512)'
p62
ssS'cholesterol_mg'
p63
(dp64
g4
g11
sg6
I13
sg7
S'CHAR(512)'
p65
ssS'name'
p66
(dp67
g4
g11
sg6
I3
sg7
S'CHAR(512)'
p68
ssS'dietary_fiber'
p69
(dp70
g21
I16
sg22
g23
sg24
S'CHAR(512)'
p71
ssS'total_fat'
p72
(dp73
g21
I10
sg22
g23
sg24
S'CHAR(512)'
p74
ssS'serving_size'
p75
(dp76
g4
g11
sg6
I7
sg7
S'CHAR(512)'
p77
ssS'protein_g'
p78
(dp79
g4
g11
sg6
I18
sg7
S'CHAR(512)'
p80
ssS'cholesterol'
p81
(dp82
g21
I13
sg22
g23
sg24
S'CHAR(512)'
p83
ssS'total_fat_g'
p84
(dp85
g4
g11
sg6
I10
sg7
S'CHAR(512)'
p86
ssS'type'
p87
(dp88
g4
g11
sg6
I4
sg7
S'CHAR(512)'
p89
ssS'owner_id'
p90
(dp91
g4
S'reference auth_user'
p92
sg6
I2
sg7
S'INTEGER REFERENCES auth_user(id) ON DELETE CASCADE'
p93
ss.