(dp1
S'description'
p2
(dp3
S'length'
p4
I32768
sS'unique'
p5
I00
sS'sortable'
p6
I6
sS'sql'
p7
S'TEXT'
p8
sS'notnull'
p9
I00
sS'type'
p10
S'text'
p11
ssS'sugars_g'
p12
(dp13
g4
I512
sg5
I00
sg6
I17
sg7
S'CHAR(512)'
p14
sg9
I00
sg10
S'string'
p15
ssS'saturated_fat_g'
p16
(dp17
g4
I512
sg5
I00
sg6
I11
sg7
S'CHAR(512)'
p18
sg9
I00
sg10
g15
ssS'brand'
p19
(dp20
g4
I512
sg5
I00
sg6
I5
sg7
S'CHAR(512)'
p21
sg9
I00
sg10
g15
ssS'owner_id'
p22
(dp23
g4
I512
sg5
I00
sg6
I2
sg7
S'INTEGER REFERENCES auth_user (id) ON DELETE CASCADE'
p24
sg9
I00
sg10
S'reference auth_user'
p25
ssS'dietary_fiber_g'
p26
(dp27
g4
I512
sg5
I00
sg6
I16
sg7
S'CHAR(512)'
p28
sg9
I00
sg10
g15
ssS'carbohydrates_g'
p29
(dp30
g4
I512
sg5
I00
sg6
I15
sg7
S'CHAR(512)'
p31
sg9
I00
sg10
g15
ssS'calories_from_fat'
p32
(dp33
g4
I512
sg5
I00
sg6
I9
sg7
S'CHAR(512)'
p34
sg9
I00
sg10
g15
ssS'id'
p35
(dp36
g4
I512
sg5
I00
sg6
I1
sg7
S'INTEGER PRIMARY KEY AUTOINCREMENT'
p37
sg9
I00
sg10
S'id'
p38
ssS'sodium_mg'
p39
(dp40
g4
I512
sg5
I00
sg6
I14
sg7
S'CHAR(512)'
p41
sg9
I00
sg10
g15
ssS'name'
p42
(dp43
g4
I512
sg5
I00
sg6
I3
sg7
S'CHAR(512)'
p44
sg9
I00
sg10
g15
ssS'calories'
p45
(dp46
g4
I512
sg5
I00
sg6
I8
sg7
S'CHAR(512)'
p47
sg9
I00
sg10
g15
ssS'cholesterol_mg'
p48
(dp49
g4
I512
sg5
I00
sg6
I13
sg7
S'CHAR(512)'
p50
sg9
I00
sg10
g15
ssS'serving_size'
p51
(dp52
g4
I512
sg5
I00
sg6
I7
sg7
S'CHAR(512)'
p53
sg9
I00
sg10
g15
ssS'protein_g'
p54
(dp55
g4
I512
sg5
I00
sg6
I18
sg7
S'CHAR(512)'
p56
sg9
I00
sg10
g15
ssS'trans_fat_g'
p57
(dp58
g4
I512
sg5
I00
sg6
I12
sg7
S'CHAR(512)'
p59
sg9
I00
sg10
g15
ssS'type'
p60
(dp61
g4
I512
sg5
I00
sg6
I4
sg7
S'CHAR(512)'
p62
sg9
I00
sg10
g15
ssS'total_fat_g'
p63
(dp64
g4
I512
sg5
I00
sg6
I10
sg7
S'CHAR(512)'
p65
sg9
I00
sg10
g15
ss.