(dp1
S'number_of_servings'
p2
(dp3
S'type'
p4
S'string'
p5
sS'sortable'
p6
I5
sS'sql'
p7
S'CHAR(512)'
p8
ssS'dt'
p9
(dp10
g4
S'datetime'
p11
sg6
I3
sg7
S'TIMESTAMP'
p12
ssS'food_item_id'
p13
(dp14
g4
S'reference food_item'
p15
sg6
I4
sg7
S'INTEGER REFERENCES food_item(id) ON DELETE CASCADE'
p16
ssS'id'
p17
(dp18
g4
g17
sg6
I1
sg7
S'INTEGER PRIMARY KEY AUTOINCREMENT'
p19
ssS'owner_id'
p20
(dp21
g4
S'reference auth_user'
p22
sg6
I2
sg7
S'INTEGER REFERENCES auth_user(id) ON DELETE CASCADE'
p23
ss.