(dp1
S'output'
p2
S"<class 'urllib2.HTTPError'> HTTP Error 504: Gateway Timeout"
p3
sS'layer'
p4
S'C:\\Users\\matt\\Desktop\\web2py\\applications\\diet_exercise_log\\controllers/default.py'
p5
sS'code'
p6
S'# -*- coding: utf-8 -*-\n# this file is released under public domain and you can use without limitations\n\n#########################################################################\n## This is a samples controller\n## - index is the default action of any application\n## - user is required for authentication and authorization\n## - download is for downloading files uploaded in the db (does streaming)\n## - call exposes all registered services (none by default)\n#########################################################################\n\ndef index():\n    response.flash = \'this is index()\'\n    return dict()\n\n@auth.requires_login()\ndef menu():\n    diet_items = db(db.diet_item.owner_id==auth.user_id).select(db.diet_item.ALL, \n        orderby=db.diet_item.type)\n    return dict(diet_items=diet_items)\n\n@auth.requires_login()\ndef view_logs():\n    meals = db(db.meal.owner_id==auth.user_id).select(db.meal.ALL, orderby=db.meal.dt)\n    return dict(meals=meals)\n\n@auth.requires_login()\ndef settings():\n    response.flash = \'this is settings()\'\n    return dict()\n    \n@auth.requires_login()\ndef add_diet_item():\n    response.flash = \'this is add_diet_item()\'\n    import urllib, urllib2\n    import json\n    results = json.loads(urllib.urlopen(\'http://api.esha.com/foods?apikey=xck7a6d547sknsh3tuca6vdx&query=broccoli\').read(), encoding=\'UTF-8\')\n    items = results[\'items\']\n    \n    data = {"items": [ { "id": "urn:uuid:17dbb668-f3f4-4822-8566-f46496887edc",\n                         "quantity": 0.5, "unit": "urn:uuid:3e8384f0-ea47-4fde-b7e1-a12747b28a30" } ]\n           }\n    req = urllib2.Request(\'http://api.esha.com/analysis?apikey=xck7a6d547sknsh3tuca6vdx\')\n    req.add_header(\'Content-Type\', \'application/json\')\n    f=urllib2.urlopen(req, json.dumps(data))\n    results = f.read()\n    \n    results = json.loads(urllib.urlopen(\'http://api.esha.com/nutrients?apikey=xck7a6d547sknsh3tuca6vdx\').read(), encoding=\'UTF-8\')\n    nutrients = results\n    return dict(items=items, results=results, nutrients=nutrients)\n    \ndef user():\n    """\n    exposes:\n    http://..../[app]/default/user/login\n    http://..../[app]/default/user/logout\n    http://..../[app]/default/user/register\n    http://..../[app]/default/user/profile\n    http://..../[app]/default/user/retrieve_password\n    http://..../[app]/default/user/change_password\n    use @auth.requires_login()\n        @auth.requires_membership(\'group name\')\n        @auth.requires_permission(\'read\',\'table name\',record_id)\n    to decorate functions that need access control\n    """\n    return dict(form=auth())\n\n\ndef download():\n    """\n    allows downloading of uploaded files\n    http://..../[app]/default/download/[filename]\n    """\n    return response.download(request,db)\n\n\ndef call():\n    """\n    exposes services. for example:\n    http://..../[app]/default/call/jsonrpc\n    decorate with @services.jsonrpc the functions to expose\n    supports xml, json, xmlrpc, jsonrpc, amfrpc, rss, csv\n    """\n    return service()\n\n\n@auth.requires_signature()\ndef data():\n    """\n    http://..../[app]/default/data/tables\n    http://..../[app]/default/data/create/[table]\n    http://..../[app]/default/data/read/[table]/[id]\n    http://..../[app]/default/data/update/[table]/[id]\n    http://..../[app]/default/data/delete/[table]/[id]\n    http://..../[app]/default/data/select/[table]\n    http://..../[app]/default/data/search/[table]\n    but URLs must be signed, i.e. linked with\n      A(\'table\',_href=URL(\'data/tables\',user_signature=True))\n    or with the signed load operator\n      LOAD(\'default\',\'data.load\',args=\'tables\',ajax=True,user_signature=True)\n    """\n    return dict(form=crud())\n\nresponse._vars=response._caller(add_diet_item)\n'
p7
sS'snapshot'
p8
(dp9
S'exception'
p10
(dp11
S'__module__'
p12
S"'urllib2'"
p13
sg6
S'504'
p14
sS'__getslice__'
p15
S"<method-wrapper '__getslice__' of HTTPError object>"
p16
sS'__str__'
p17
S'<bound method HTTPError.__str__ of HTTPError()>'
p18
sS'__reduce__'
p19
S'<built-in method __reduce__ of HTTPError object>'
p20
sS'__dict__'
p21
S"{'__iter__': <bound method _fileobject.__iter__ of <socket._fileobject object>>, 'code': 504, 'fileno': <bound method _fileobject.fileno of <socket._fileobject object>>, 'fp': <addinfourl at 91960904 whose fp = <socket._fileobject object>>, 'hdrs': <httplib.HTTPMessage instance>, 'headers': <httplib.HTTPMessage instance>, 'msg': 'Gateway Timeout', 'next': <bound method _fileobject.next of <socket._fileobject object>>, 'read': <bound method _fileobject.read of <socket._fileobject object>>, 'readline': <bound method _fileobject.readline of <socket._fileobject object>>, ...}"
p22
sS'close'
p23
S'<bound method HTTPError.close of HTTPError()>'
p24
sS'__sizeof__'
p25
S'<built-in method __sizeof__ of HTTPError object>'
p26
sS'next'
p27
S'<bound method _fileobject.next of <socket._fileobject object>>'
p28
sS'__weakref__'
p29
S'None'
p30
sS'__init__'
p31
S'<bound method HTTPError.__init__ of HTTPError()>'
p32
sS'__setattr__'
p33
S"<method-wrapper '__setattr__' of HTTPError object>"
p34
sS'__reduce_ex__'
p35
S'<built-in method __reduce_ex__ of HTTPError object>'
p36
sS'__new__'
p37
S'<built-in method __new__ of type object>'
p38
sS'headers'
p39
S'<httplib.HTTPMessage instance>'
p40
sS'errno'
p41
S'None'
p42
sS'readlines'
p43
S'<bound method _fileobject.readlines of <socket._fileobject object>>'
p44
sS'__format__'
p45
S'<built-in method __format__ of HTTPError object>'
p46
sS'__class__'
p47
S"<class 'urllib2.HTTPError'>"
p48
sS'filename'
p49
S"'http://api.esha.com/analysis?apikey=xck7a6d547sknsh3tuca6vdx'"
p50
sS'_HTTPError__super_init'
p51
S'<bound method HTTPError.__init__ of HTTPError()>'
p52
sS'msg'
p53
S"'Gateway Timeout'"
p54
sS'__doc__'
p55
S"'Raised when HTTP error occurs, but also acts like non-error return'"
p56
sS'fp'
p57
S'<addinfourl at 91960904 whose fp = <socket._fileobject object>>'
p58
sS'hdrs'
p59
S'<httplib.HTTPMessage instance>'
p60
sS'__getitem__'
p61
S"<method-wrapper '__getitem__' of HTTPError object>"
p62
sS'__setstate__'
p63
S'<built-in method __setstate__ of HTTPError object>'
p64
sS'read'
p65
S'<bound method _fileobject.read of <socket._fileobject object>>'
p66
sS'__getattribute__'
p67
S"<method-wrapper '__getattribute__' of HTTPError object>"
p68
sS'args'
p69
S'()'
p70
sS'__iter__'
p71
S'<bound method _fileobject.__iter__ of <socket._fileobject object>>'
p72
sS'__subclasshook__'
p73
S'<built-in method __subclasshook__ of type object>'
p74
sS'readline'
p75
S'<bound method _fileobject.readline of <socket._fileobject object>>'
p76
sS'__unicode__'
p77
S'<built-in method __unicode__ of HTTPError object>'
p78
sS'info'
p79
S'<bound method HTTPError.info of HTTPError()>'
p80
sS'fileno'
p81
S'<bound method _fileobject.fileno of <socket._fileobject object>>'
p82
sS'getcode'
p83
S'<bound method HTTPError.getcode of HTTPError()>'
p84
sS'url'
p85
S"'http://api.esha.com/analysis?apikey=xck7a6d547sknsh3tuca6vdx'"
p86
sS'strerror'
p87
S'None'
p88
sS'geturl'
p89
S'<bound method HTTPError.geturl of HTTPError()>'
p90
sS'__delattr__'
p91
S"<method-wrapper '__delattr__' of HTTPError object>"
p92
sS'__repr__'
p93
S"<method-wrapper '__repr__' of HTTPError object>"
p94
sS'__hash__'
p95
S"<method-wrapper '__hash__' of HTTPError object>"
p96
ssS'evalue'
p97
S'HTTP Error 504: Gateway Timeout'
p98
sS'request'
p99
ccopy_reg
_reconstructor
p100
(cgluon.html
BEAUTIFY
p101
c__builtin__
object
p102
NtRp103
(dp104
S'attributes'
p105
(dp106
sS'components'
p107
(lp108
g100
(cgluon.html
TABLE
p109
g102
NtRp110
(dp111
g105
(dp112
S'level'
p113
I5
ssS'parent'
p114
Nsg107
(lp115
g100
(cgluon.html
TR
p116
g102
NtRp117
(dp118
g105
(dp119
sg114
g110
sg107
(lp120
g100
(cgluon.html
TD
p121
g102
NtRp122
(dp123
g105
(dp124
S'_style'
p125
S'font-weight:bold;vertical-align:top'
p126
ssg114
g117
sg107
(lp127
S'ajax'
p128
asbag100
(g121
g102
NtRp129
(dp130
g105
(dp131
S'_valign'
p132
S'top'
p133
ssg114
g117
sg107
(lp134
S':'
asbag100
(g121
g102
NtRp135
(dp136
g105
(dp137
sg114
g117
sg107
(lp138
g100
(g101
g102
NtRp139
(dp140
g105
(dp141
g113
I5
ssg114
g135
sg107
(lp142
S'False'
p143
asbasbasbag100
(g116
g102
NtRp144
(dp145
g105
(dp146
sg114
g110
sg107
(lp147
g100
(g121
g102
NtRp148
(dp149
g105
(dp150
g125
g126
ssg114
g144
sg107
(lp151
S'application'
p152
asbag100
(g121
g102
NtRp153
(dp154
g105
(dp155
g132
g133
ssg114
g144
sg107
(lp156
S':'
asbag100
(g121
g102
NtRp157
(dp158
g105
(dp159
sg114
g144
sg107
(lp160
g100
(g101
g102
NtRp161
(dp162
g105
(dp163
g113
I5
ssg114
g157
sg107
(lp164
S'diet_exercise_log'
p165
asbasbasbag100
(g116
g102
NtRp166
(dp167
g105
(dp168
sg114
g110
sg107
(lp169
g100
(g121
g102
NtRp170
(dp171
g105
(dp172
g125
g126
ssg114
g166
sg107
(lp173
g69
asbag100
(g121
g102
NtRp174
(dp175
g105
(dp176
g132
g133
ssg114
g166
sg107
(lp177
S':'
asbag100
(g121
g102
NtRp178
(dp179
g105
(dp180
sg114
g166
sg107
(lp181
g100
(g101
g102
NtRp182
(dp183
g105
(dp184
g113
I5
ssg114
g178
sg107
(lp185
g100
(g109
g102
NtRp186
(dp187
g105
(dp188
g113
I4
ssg114
Nsg107
(lp189
sbasbasbasbag100
(g116
g102
NtRp190
(dp191
g105
(dp192
sg114
g110
sg107
(lp193
g100
(g121
g102
NtRp194
(dp195
g105
(dp196
g125
g126
ssg114
g190
sg107
(lp197
S'body'
p198
asbag100
(g121
g102
NtRp199
(dp200
g105
(dp201
g132
g133
ssg114
g190
sg107
(lp202
S':'
asbag100
(g121
g102
NtRp203
(dp204
g105
(dp205
sg114
g190
sg107
(lp206
g100
(g101
g102
NtRp207
(dp208
g105
(dp209
g113
I5
ssg114
g203
sg107
(lp210
S'<cStringIO.StringO object at 0x027FE500>'
p211
asbasbasbag100
(g116
g102
NtRp212
(dp213
g105
(dp214
sg114
g110
sg107
(lp215
g100
(g121
g102
NtRp216
(dp217
g105
(dp218
g125
g126
ssg114
g212
sg107
(lp219
S'cid'
p220
asbag100
(g121
g102
NtRp221
(dp222
g105
(dp223
g132
g133
ssg114
g212
sg107
(lp224
S':'
asbag100
(g121
g102
NtRp225
(dp226
g105
(dp227
sg114
g212
sg107
(lp228
g100
(g101
g102
NtRp229
(dp230
g105
(dp231
g113
I5
ssg114
g225
sg107
(lp232
S'None'
p233
asbasbasbag100
(g116
g102
NtRp234
(dp235
g105
(dp236
sg114
g110
sg107
(lp237
g100
(g121
g102
NtRp238
(dp239
g105
(dp240
g125
g126
ssg114
g234
sg107
(lp241
S'client'
p242
asbag100
(g121
g102
NtRp243
(dp244
g105
(dp245
g132
g133
ssg114
g234
sg107
(lp246
S':'
asbag100
(g121
g102
NtRp247
(dp248
g105
(dp249
sg114
g234
sg107
(lp250
g100
(g101
g102
NtRp251
(dp252
g105
(dp253
g113
I5
ssg114
g247
sg107
(lp254
S'127.0.0.1'
p255
asbasbasbag100
(g116
g102
NtRp256
(dp257
g105
(dp258
sg114
g110
sg107
(lp259
g100
(g121
g102
NtRp260
(dp261
g105
(dp262
g125
g126
ssg114
g256
sg107
(lp263
S'controller'
p264
asbag100
(g121
g102
NtRp265
(dp266
g105
(dp267
g132
g133
ssg114
g256
sg107
(lp268
S':'
asbag100
(g121
g102
NtRp269
(dp270
g105
(dp271
sg114
g256
sg107
(lp272
g100
(g101
g102
NtRp273
(dp274
g105
(dp275
g113
I5
ssg114
g269
sg107
(lp276
S'default'
p277
asbasbasbag100
(g116
g102
NtRp278
(dp279
g105
(dp280
sg114
g110
sg107
(lp281
g100
(g121
g102
NtRp282
(dp283
g105
(dp284
g125
g126
ssg114
g278
sg107
(lp285
S'cookies'
p286
asbag100
(g121
g102
NtRp287
(dp288
g105
(dp289
g132
g133
ssg114
g278
sg107
(lp290
S':'
asbag100
(g121
g102
NtRp291
(dp292
g105
(dp293
sg114
g278
sg107
(lp294
g100
(g101
g102
NtRp295
(dp296
g105
(dp297
g113
I5
ssg114
g291
sg107
(lp298
g100
(g109
g102
NtRp299
(dp300
g105
(dp301
g113
I4
ssg114
Nsg107
(lp302
g100
(g116
g102
NtRp303
(dp304
g105
(dp305
sg114
g299
sg107
(lp306
g100
(g121
g102
NtRp307
(dp308
g105
(dp309
g125
g126
ssg114
g303
sg107
(lp310
S'session_id_admin'
p311
asbag100
(g121
g102
NtRp312
(dp313
g105
(dp314
g132
g133
ssg114
g303
sg107
(lp315
S':'
asbag100
(g121
g102
NtRp316
(dp317
g105
(dp318
sg114
g303
sg107
(lp319
g100
(g101
g102
NtRp320
(dp321
g105
(dp322
g113
I4
ssg114
g316
sg107
(lp323
S'127.0.0.1-d45a977f-85c0-49b7-974c-ddc798f86ec9'
p324
ag100
(g109
g102
NtRp325
(dp326
g105
(dp327
g113
I3
ssg114
Nsg107
(lp328
g100
(g116
g102
NtRp329
(dp330
g105
(dp331
sg114
g325
sg107
(lp332
g100
(g121
g102
NtRp333
(dp334
g105
(dp335
g125
g126
ssg114
g329
sg107
(lp336
S'comment'
p337
asbag100
(g121
g102
NtRp338
(dp339
g105
(dp340
g132
g133
ssg114
g329
sg107
(lp341
S':'
asbag100
(g121
g102
NtRp342
(dp343
g105
(dp344
sg114
g329
sg107
(lp345
g100
(g101
g102
NtRp346
(dp347
g105
(dp348
g113
I3
ssg114
g342
sg107
(lp349
S''
asbasbasbag100
(g116
g102
NtRp350
(dp351
g105
(dp352
sg114
g325
sg107
(lp353
g100
(g121
g102
NtRp354
(dp355
g105
(dp356
g125
g126
ssg114
g350
sg107
(lp357
S'domain'
p358
asbag100
(g121
g102
NtRp359
(dp360
g105
(dp361
g132
g133
ssg114
g350
sg107
(lp362
S':'
asbag100
(g121
g102
NtRp363
(dp364
g105
(dp365
sg114
g350
sg107
(lp366
g100
(g101
g102
NtRp367
(dp368
g105
(dp369
g113
I3
ssg114
g363
sg107
(lp370
S''
asbasbasbag100
(g116
g102
NtRp371
(dp372
g105
(dp373
sg114
g325
sg107
(lp374
g100
(g121
g102
NtRp375
(dp376
g105
(dp377
g125
g126
ssg114
g371
sg107
(lp378
S'expires'
p379
asbag100
(g121
g102
NtRp380
(dp381
g105
(dp382
g132
g133
ssg114
g371
sg107
(lp383
S':'
asbag100
(g121
g102
NtRp384
(dp385
g105
(dp386
sg114
g371
sg107
(lp387
g100
(g101
g102
NtRp388
(dp389
g105
(dp390
g113
I3
ssg114
g384
sg107
(lp391
S''
asbasbasbag100
(g116
g102
NtRp392
(dp393
g105
(dp394
sg114
g325
sg107
(lp395
g100
(g121
g102
NtRp396
(dp397
g105
(dp398
g125
g126
ssg114
g392
sg107
(lp399
S'httponly'
p400
asbag100
(g121
g102
NtRp401
(dp402
g105
(dp403
g132
g133
ssg114
g392
sg107
(lp404
S':'
asbag100
(g121
g102
NtRp405
(dp406
g105
(dp407
sg114
g392
sg107
(lp408
g100
(g101
g102
NtRp409
(dp410
g105
(dp411
g113
I3
ssg114
g405
sg107
(lp412
S''
asbasbasbag100
(g116
g102
NtRp413
(dp414
g105
(dp415
sg114
g325
sg107
(lp416
g100
(g121
g102
NtRp417
(dp418
g105
(dp419
g125
g126
ssg114
g413
sg107
(lp420
S'max-age'
p421
asbag100
(g121
g102
NtRp422
(dp423
g105
(dp424
g132
g133
ssg114
g413
sg107
(lp425
S':'
asbag100
(g121
g102
NtRp426
(dp427
g105
(dp428
sg114
g413
sg107
(lp429
g100
(g101
g102
NtRp430
(dp431
g105
(dp432
g113
I3
ssg114
g426
sg107
(lp433
S''
asbasbasbag100
(g116
g102
NtRp434
(dp435
g105
(dp436
sg114
g325
sg107
(lp437
g100
(g121
g102
NtRp438
(dp439
g105
(dp440
g125
g126
ssg114
g434
sg107
(lp441
S'path'
p442
asbag100
(g121
g102
NtRp443
(dp444
g105
(dp445
g132
g133
ssg114
g434
sg107
(lp446
S':'
asbag100
(g121
g102
NtRp447
(dp448
g105
(dp449
sg114
g434
sg107
(lp450
g100
(g101
g102
NtRp451
(dp452
g105
(dp453
g113
I3
ssg114
g447
sg107
(lp454
S''
asbasbasbag100
(g116
g102
NtRp455
(dp456
g105
(dp457
sg114
g325
sg107
(lp458
g100
(g121
g102
NtRp459
(dp460
g105
(dp461
g125
g126
ssg114
g455
sg107
(lp462
S'secure'
p463
asbag100
(g121
g102
NtRp464
(dp465
g105
(dp466
g132
g133
ssg114
g455
sg107
(lp467
S':'
asbag100
(g121
g102
NtRp468
(dp469
g105
(dp470
sg114
g455
sg107
(lp471
g100
(g101
g102
NtRp472
(dp473
g105
(dp474
g113
I3
ssg114
g468
sg107
(lp475
S''
asbasbasbag100
(g116
g102
NtRp476
(dp477
g105
(dp478
sg114
g325
sg107
(lp479
g100
(g121
g102
NtRp480
(dp481
g105
(dp482
g125
g126
ssg114
g476
sg107
(lp483
S'version'
p484
asbag100
(g121
g102
NtRp485
(dp486
g105
(dp487
g132
g133
ssg114
g476
sg107
(lp488
S':'
asbag100
(g121
g102
NtRp489
(dp490
g105
(dp491
sg114
g476
sg107
(lp492
g100
(g101
g102
NtRp493
(dp494
g105
(dp495
g113
I3
ssg114
g489
sg107
(lp496
S''
asbasbasbasbasbasbasbag100
(g116
g102
NtRp497
(dp498
g105
(dp499
sg114
g299
sg107
(lp500
g100
(g121
g102
NtRp501
(dp502
g105
(dp503
g125
g126
ssg114
g497
sg107
(lp504
S'session_id_diet_exercise_log'
p505
asbag100
(g121
g102
NtRp506
(dp507
g105
(dp508
g132
g133
ssg114
g497
sg107
(lp509
S':'
asbag100
(g121
g102
NtRp510
(dp511
g105
(dp512
sg114
g497
sg107
(lp513
g100
(g101
g102
NtRp514
(dp515
g105
(dp516
g113
I4
ssg114
g510
sg107
(lp517
S'127.0.0.1-a664d681-6449-4b12-a27a-364013383b1b'
p518
ag100
(g109
g102
NtRp519
(dp520
g105
(dp521
g113
I3
ssg114
Nsg107
(lp522
g100
(g116
g102
NtRp523
(dp524
g105
(dp525
sg114
g519
sg107
(lp526
g100
(g121
g102
NtRp527
(dp528
g105
(dp529
g125
g126
ssg114
g523
sg107
(lp530
g337
asbag100
(g121
g102
NtRp531
(dp532
g105
(dp533
g132
g133
ssg114
g523
sg107
(lp534
S':'
asbag100
(g121
g102
NtRp535
(dp536
g105
(dp537
sg114
g523
sg107
(lp538
g100
(g101
g102
NtRp539
(dp540
g105
(dp541
g113
I3
ssg114
g535
sg107
(lp542
S''
asbasbasbag100
(g116
g102
NtRp543
(dp544
g105
(dp545
sg114
g519
sg107
(lp546
g100
(g121
g102
NtRp547
(dp548
g105
(dp549
g125
g126
ssg114
g543
sg107
(lp550
g358
asbag100
(g121
g102
NtRp551
(dp552
g105
(dp553
g132
g133
ssg114
g543
sg107
(lp554
S':'
asbag100
(g121
g102
NtRp555
(dp556
g105
(dp557
sg114
g543
sg107
(lp558
g100
(g101
g102
NtRp559
(dp560
g105
(dp561
g113
I3
ssg114
g555
sg107
(lp562
S''
asbasbasbag100
(g116
g102
NtRp563
(dp564
g105
(dp565
sg114
g519
sg107
(lp566
g100
(g121
g102
NtRp567
(dp568
g105
(dp569
g125
g126
ssg114
g563
sg107
(lp570
g379
asbag100
(g121
g102
NtRp571
(dp572
g105
(dp573
g132
g133
ssg114
g563
sg107
(lp574
S':'
asbag100
(g121
g102
NtRp575
(dp576
g105
(dp577
sg114
g563
sg107
(lp578
g100
(g101
g102
NtRp579
(dp580
g105
(dp581
g113
I3
ssg114
g575
sg107
(lp582
S''
asbasbasbag100
(g116
g102
NtRp583
(dp584
g105
(dp585
sg114
g519
sg107
(lp586
g100
(g121
g102
NtRp587
(dp588
g105
(dp589
g125
g126
ssg114
g583
sg107
(lp590
g400
asbag100
(g121
g102
NtRp591
(dp592
g105
(dp593
g132
g133
ssg114
g583
sg107
(lp594
S':'
asbag100
(g121
g102
NtRp595
(dp596
g105
(dp597
sg114
g583
sg107
(lp598
g100
(g101
g102
NtRp599
(dp600
g105
(dp601
g113
I3
ssg114
g595
sg107
(lp602
S''
asbasbasbag100
(g116
g102
NtRp603
(dp604
g105
(dp605
sg114
g519
sg107
(lp606
g100
(g121
g102
NtRp607
(dp608
g105
(dp609
g125
g126
ssg114
g603
sg107
(lp610
g421
asbag100
(g121
g102
NtRp611
(dp612
g105
(dp613
g132
g133
ssg114
g603
sg107
(lp614
S':'
asbag100
(g121
g102
NtRp615
(dp616
g105
(dp617
sg114
g603
sg107
(lp618
g100
(g101
g102
NtRp619
(dp620
g105
(dp621
g113
I3
ssg114
g615
sg107
(lp622
S''
asbasbasbag100
(g116
g102
NtRp623
(dp624
g105
(dp625
sg114
g519
sg107
(lp626
g100
(g121
g102
NtRp627
(dp628
g105
(dp629
g125
g126
ssg114
g623
sg107
(lp630
g442
asbag100
(g121
g102
NtRp631
(dp632
g105
(dp633
g132
g133
ssg114
g623
sg107
(lp634
S':'
asbag100
(g121
g102
NtRp635
(dp636
g105
(dp637
sg114
g623
sg107
(lp638
g100
(g101
g102
NtRp639
(dp640
g105
(dp641
g113
I3
ssg114
g635
sg107
(lp642
S''
asbasbasbag100
(g116
g102
NtRp643
(dp644
g105
(dp645
sg114
g519
sg107
(lp646
g100
(g121
g102
NtRp647
(dp648
g105
(dp649
g125
g126
ssg114
g643
sg107
(lp650
g463
asbag100
(g121
g102
NtRp651
(dp652
g105
(dp653
g132
g133
ssg114
g643
sg107
(lp654
S':'
asbag100
(g121
g102
NtRp655
(dp656
g105
(dp657
sg114
g643
sg107
(lp658
g100
(g101
g102
NtRp659
(dp660
g105
(dp661
g113
I3
ssg114
g655
sg107
(lp662
S''
asbasbasbag100
(g116
g102
NtRp663
(dp664
g105
(dp665
sg114
g519
sg107
(lp666
g100
(g121
g102
NtRp667
(dp668
g105
(dp669
g125
g126
ssg114
g663
sg107
(lp670
g484
asbag100
(g121
g102
NtRp671
(dp672
g105
(dp673
g132
g133
ssg114
g663
sg107
(lp674
S':'
asbag100
(g121
g102
NtRp675
(dp676
g105
(dp677
sg114
g663
sg107
(lp678
g100
(g101
g102
NtRp679
(dp680
g105
(dp681
g113
I3
ssg114
g675
sg107
(lp682
S''
asbasbasbasbasbasbasbag100
(g116
g102
NtRp683
(dp684
g105
(dp685
sg114
g299
sg107
(lp686
g100
(g121
g102
NtRp687
(dp688
g105
(dp689
g125
g126
ssg114
g683
sg107
(lp690
S'session_id_welcome'
p691
asbag100
(g121
g102
NtRp692
(dp693
g105
(dp694
g132
g133
ssg114
g683
sg107
(lp695
S':'
asbag100
(g121
g102
NtRp696
(dp697
g105
(dp698
sg114
g683
sg107
(lp699
g100
(g101
g102
NtRp700
(dp701
g105
(dp702
g113
I4
ssg114
g696
sg107
(lp703
S'127.0.0.1-dd4837a4-af09-46c7-8fed-40e148c13110'
p704
ag100
(g109
g102
NtRp705
(dp706
g105
(dp707
g113
I3
ssg114
Nsg107
(lp708
g100
(g116
g102
NtRp709
(dp710
g105
(dp711
sg114
g705
sg107
(lp712
g100
(g121
g102
NtRp713
(dp714
g105
(dp715
g125
g126
ssg114
g709
sg107
(lp716
g337
asbag100
(g121
g102
NtRp717
(dp718
g105
(dp719
g132
g133
ssg114
g709
sg107
(lp720
S':'
asbag100
(g121
g102
NtRp721
(dp722
g105
(dp723
sg114
g709
sg107
(lp724
g100
(g101
g102
NtRp725
(dp726
g105
(dp727
g113
I3
ssg114
g721
sg107
(lp728
S''
asbasbasbag100
(g116
g102
NtRp729
(dp730
g105
(dp731
sg114
g705
sg107
(lp732
g100
(g121
g102
NtRp733
(dp734
g105
(dp735
g125
g126
ssg114
g729
sg107
(lp736
g358
asbag100
(g121
g102
NtRp737
(dp738
g105
(dp739
g132
g133
ssg114
g729
sg107
(lp740
S':'
asbag100
(g121
g102
NtRp741
(dp742
g105
(dp743
sg114
g729
sg107
(lp744
g100
(g101
g102
NtRp745
(dp746
g105
(dp747
g113
I3
ssg114
g741
sg107
(lp748
S''
asbasbasbag100
(g116
g102
NtRp749
(dp750
g105
(dp751
sg114
g705
sg107
(lp752
g100
(g121
g102
NtRp753
(dp754
g105
(dp755
g125
g126
ssg114
g749
sg107
(lp756
g379
asbag100
(g121
g102
NtRp757
(dp758
g105
(dp759
g132
g133
ssg114
g749
sg107
(lp760
S':'
asbag100
(g121
g102
NtRp761
(dp762
g105
(dp763
sg114
g749
sg107
(lp764
g100
(g101
g102
NtRp765
(dp766
g105
(dp767
g113
I3
ssg114
g761
sg107
(lp768
S''
asbasbasbag100
(g116
g102
NtRp769
(dp770
g105
(dp771
sg114
g705
sg107
(lp772
g100
(g121
g102
NtRp773
(dp774
g105
(dp775
g125
g126
ssg114
g769
sg107
(lp776
g400
asbag100
(g121
g102
NtRp777
(dp778
g105
(dp779
g132
g133
ssg114
g769
sg107
(lp780
S':'
asbag100
(g121
g102
NtRp781
(dp782
g105
(dp783
sg114
g769
sg107
(lp784
g100
(g101
g102
NtRp785
(dp786
g105
(dp787
g113
I3
ssg114
g781
sg107
(lp788
S''
asbasbasbag100
(g116
g102
NtRp789
(dp790
g105
(dp791
sg114
g705
sg107
(lp792
g100
(g121
g102
NtRp793
(dp794
g105
(dp795
g125
g126
ssg114
g789
sg107
(lp796
g421
asbag100
(g121
g102
NtRp797
(dp798
g105
(dp799
g132
g133
ssg114
g789
sg107
(lp800
S':'
asbag100
(g121
g102
NtRp801
(dp802
g105
(dp803
sg114
g789
sg107
(lp804
g100
(g101
g102
NtRp805
(dp806
g105
(dp807
g113
I3
ssg114
g801
sg107
(lp808
S''
asbasbasbag100
(g116
g102
NtRp809
(dp810
g105
(dp811
sg114
g705
sg107
(lp812
g100
(g121
g102
NtRp813
(dp814
g105
(dp815
g125
g126
ssg114
g809
sg107
(lp816
g442
asbag100
(g121
g102
NtRp817
(dp818
g105
(dp819
g132
g133
ssg114
g809
sg107
(lp820
S':'
asbag100
(g121
g102
NtRp821
(dp822
g105
(dp823
sg114
g809
sg107
(lp824
g100
(g101
g102
NtRp825
(dp826
g105
(dp827
g113
I3
ssg114
g821
sg107
(lp828
S''
asbasbasbag100
(g116
g102
NtRp829
(dp830
g105
(dp831
sg114
g705
sg107
(lp832
g100
(g121
g102
NtRp833
(dp834
g105
(dp835
g125
g126
ssg114
g829
sg107
(lp836
g463
asbag100
(g121
g102
NtRp837
(dp838
g105
(dp839
g132
g133
ssg114
g829
sg107
(lp840
S':'
asbag100
(g121
g102
NtRp841
(dp842
g105
(dp843
sg114
g829
sg107
(lp844
g100
(g101
g102
NtRp845
(dp846
g105
(dp847
g113
I3
ssg114
g841
sg107
(lp848
S''
asbasbasbag100
(g116
g102
NtRp849
(dp850
g105
(dp851
sg114
g705
sg107
(lp852
g100
(g121
g102
NtRp853
(dp854
g105
(dp855
g125
g126
ssg114
g849
sg107
(lp856
g484
asbag100
(g121
g102
NtRp857
(dp858
g105
(dp859
g132
g133
ssg114
g849
sg107
(lp860
S':'
asbag100
(g121
g102
NtRp861
(dp862
g105
(dp863
sg114
g849
sg107
(lp864
g100
(g101
g102
NtRp865
(dp866
g105
(dp867
g113
I3
ssg114
g861
sg107
(lp868
S''
asbasbasbasbasbasbasbasbasbasbasbag100
(g116
g102
NtRp869
(dp870
g105
(dp871
sg114
g110
sg107
(lp872
g100
(g121
g102
NtRp873
(dp874
g105
(dp875
g125
g126
ssg114
g869
sg107
(lp876
S'env'
p877
asbag100
(g121
g102
NtRp878
(dp879
g105
(dp880
g132
g133
ssg114
g869
sg107
(lp881
S':'
asbag100
(g121
g102
NtRp882
(dp883
g105
(dp884
sg114
g869
sg107
(lp885
g100
(g101
g102
NtRp886
(dp887
g105
(dp888
g113
I5
ssg114
g882
sg107
(lp889
g100
(g109
g102
NtRp890
(dp891
g105
(dp892
g113
I4
ssg114
Nsg107
(lp893
g100
(g116
g102
NtRp894
(dp895
g105
(dp896
sg114
g890
sg107
(lp897
g100
(g121
g102
NtRp898
(dp899
g105
(dp900
g125
g126
ssg114
g894
sg107
(lp901
S'app_folders'
p902
asbag100
(g121
g102
NtRp903
(dp904
g105
(dp905
g132
g133
ssg114
g894
sg107
(lp906
S':'
asbag100
(g121
g102
NtRp907
(dp908
g105
(dp909
sg114
g894
sg107
(lp910
g100
(g101
g102
NtRp911
(dp912
g105
(dp913
g113
I4
ssg114
g907
sg107
(lp914
S"set(['C:\\\\Users\\\\matt\\\\Desktop\\\\web2py\\\\applications\\\\admin\\\\', 'C:\\\\Users\\\\matt\\\\Desktop\\\\web2py\\\\applications\\\\welcome\\\\', 'C:\\\\Users\\\\matt\\\\Desktop\\\\web2py\\\\applications\\\\diet_exercise_log\\\\'])"
p915
asbasbasbag100
(g116
g102
NtRp916
(dp917
g105
(dp918
sg114
g890
sg107
(lp919
g100
(g121
g102
NtRp920
(dp921
g105
(dp922
g125
g126
ssg114
g916
sg107
(lp923
S'applications_parent'
p924
asbag100
(g121
g102
NtRp925
(dp926
g105
(dp927
g132
g133
ssg114
g916
sg107
(lp928
S':'
asbag100
(g121
g102
NtRp929
(dp930
g105
(dp931
sg114
g916
sg107
(lp932
g100
(g101
g102
NtRp933
(dp934
g105
(dp935
g113
I4
ssg114
g929
sg107
(lp936
S'C:\\Users\\matt\\Desktop\\web2py'
p937
asbasbasbag100
(g116
g102
NtRp938
(dp939
g105
(dp940
sg114
g890
sg107
(lp941
g100
(g121
g102
NtRp942
(dp943
g105
(dp944
g125
g126
ssg114
g938
sg107
(lp945
S'cmd_args'
p946
asbag100
(g121
g102
NtRp947
(dp948
g105
(dp949
g132
g133
ssg114
g938
sg107
(lp950
S':'
asbag100
(g121
g102
NtRp951
(dp952
g105
(dp953
sg114
g938
sg107
(lp954
g100
(g101
g102
NtRp955
(dp956
g105
(dp957
g113
I4
ssg114
g951
sg107
(lp958
g100
(g109
g102
NtRp959
(dp960
g105
(dp961
g113
I3
ssg114
Nsg107
(lp962
sbasbasbasbag100
(g116
g102
NtRp963
(dp964
g105
(dp965
sg114
g890
sg107
(lp966
g100
(g121
g102
NtRp967
(dp968
g105
(dp969
g125
g126
ssg114
g963
sg107
(lp970
S'cmd_options'
p971
asbag100
(g121
g102
NtRp972
(dp973
g105
(dp974
g132
g133
ssg114
g963
sg107
(lp975
S':'
asbag100
(g121
g102
NtRp976
(dp977
g105
(dp978
sg114
g963
sg107
(lp979
g100
(g101
g102
NtRp980
(dp981
g105
(dp982
g113
I4
ssg114
g976
sg107
(lp983
S"<Values at 0x2494670: {'verbose': False, 'ip': '127.0.0.1', 'with_scheduler': False, 'ips': [], 'shutdown_timeout': 5, 'taskbar': False, 'port': 8000, 'maxthreads': None, 'softcron': False, 'server_name': 'matto-PC', 'bpython': False, 'nogui': False, 'pid_filename': 'httpserver.pid', 'extcron': False, 'runcron': False, 'run_system_tests': False, 'test': None, 'folder': 'C:\\\\Users\\\\matt\\\\Desktop\\\\web2py', 'config': '', 'import_models': False, 'winservice': '', 'shell': None, 'run': '', 'log_filename': 'httpserver.log', 'debuglevel': 30, 'args': [''], 'socket_timeout': 5, 'ssl_ca_certificate': None, 'scheduler': None, 'profiler_filename': None, 'ssl_private_key': '', 'scheduler_groups': None, 'password': '<ask>', 'request_queue_size': 5, 'ssl_certificate': '', 'cronjob': False, 'numthreads': None, 'quiet': False, 'interfaces': None, 'minthreads': None, 'timeout': 10, 'plain': False, 'nobanner': False}>"
p984
asbasbasbag100
(g116
g102
NtRp985
(dp986
g105
(dp987
sg114
g890
sg107
(lp988
g100
(g121
g102
NtRp989
(dp990
g105
(dp991
g125
g126
ssg114
g985
sg107
(lp992
S'db_sessions'
p993
asbag100
(g121
g102
NtRp994
(dp995
g105
(dp996
g132
g133
ssg114
g985
sg107
(lp997
S':'
asbag100
(g121
g102
NtRp998
(dp999
g105
(dp1000
sg114
g985
sg107
(lp1001
g100
(g101
g102
NtRp1002
(dp1003
g105
(dp1004
g113
I4
ssg114
g998
sg107
(lp1005
S'set([])'
p1006
asbasbasbag100
(g116
g102
NtRp1007
(dp1008
g105
(dp1009
sg114
g890
sg107
(lp1010
g100
(g121
g102
NtRp1011
(dp1012
g105
(dp1013
g125
g126
ssg114
g1007
sg107
(lp1014
S'debugging'
p1015
asbag100
(g121
g102
NtRp1016
(dp1017
g105
(dp1018
g132
g133
ssg114
g1007
sg107
(lp1019
S':'
asbag100
(g121
g102
NtRp1020
(dp1021
g105
(dp1022
sg114
g1007
sg107
(lp1023
g100
(g101
g102
NtRp1024
(dp1025
g105
(dp1026
g113
I4
ssg114
g1020
sg107
(lp1027
g143
asbasbasbag100
(g116
g102
NtRp1028
(dp1029
g105
(dp1030
sg114
g890
sg107
(lp1031
g100
(g121
g102
NtRp1032
(dp1033
g105
(dp1034
g125
g126
ssg114
g1028
sg107
(lp1035
S'gluon_parent'
p1036
asbag100
(g121
g102
NtRp1037
(dp1038
g105
(dp1039
g132
g133
ssg114
g1028
sg107
(lp1040
S':'
asbag100
(g121
g102
NtRp1041
(dp1042
g105
(dp1043
sg114
g1028
sg107
(lp1044
g100
(g101
g102
NtRp1045
(dp1046
g105
(dp1047
g113
I4
ssg114
g1041
sg107
(lp1048
S'C:\\Users\\matt\\Desktop\\web2py'
p1049
asbasbasbag100
(g116
g102
NtRp1050
(dp1051
g105
(dp1052
sg114
g890
sg107
(lp1053
g100
(g121
g102
NtRp1054
(dp1055
g105
(dp1056
g125
g126
ssg114
g1050
sg107
(lp1057
S'http_accept'
p1058
asbag100
(g121
g102
NtRp1059
(dp1060
g105
(dp1061
g132
g133
ssg114
g1050
sg107
(lp1062
S':'
asbag100
(g121
g102
NtRp1063
(dp1064
g105
(dp1065
sg114
g1050
sg107
(lp1066
g100
(g101
g102
NtRp1067
(dp1068
g105
(dp1069
g113
I4
ssg114
g1063
sg107
(lp1070
S'text/html,application/xhtml+xml,application/xml;q=0.9,*/*;q=0.8'
p1071
asbasbasbag100
(g116
g102
NtRp1072
(dp1073
g105
(dp1074
sg114
g890
sg107
(lp1075
g100
(g121
g102
NtRp1076
(dp1077
g105
(dp1078
g125
g126
ssg114
g1072
sg107
(lp1079
S'http_accept_encoding'
p1080
asbag100
(g121
g102
NtRp1081
(dp1082
g105
(dp1083
g132
g133
ssg114
g1072
sg107
(lp1084
S':'
asbag100
(g121
g102
NtRp1085
(dp1086
g105
(dp1087
sg114
g1072
sg107
(lp1088
g100
(g101
g102
NtRp1089
(dp1090
g105
(dp1091
g113
I4
ssg114
g1085
sg107
(lp1092
S'gzip, deflate'
p1093
asbasbasbag100
(g116
g102
NtRp1094
(dp1095
g105
(dp1096
sg114
g890
sg107
(lp1097
g100
(g121
g102
NtRp1098
(dp1099
g105
(dp1100
g125
g126
ssg114
g1094
sg107
(lp1101
S'http_accept_language'
p1102
asbag100
(g121
g102
NtRp1103
(dp1104
g105
(dp1105
g132
g133
ssg114
g1094
sg107
(lp1106
S':'
asbag100
(g121
g102
NtRp1107
(dp1108
g105
(dp1109
sg114
g1094
sg107
(lp1110
g100
(g101
g102
NtRp1111
(dp1112
g105
(dp1113
g113
I4
ssg114
g1107
sg107
(lp1114
S'en-US,en;q=0.5'
p1115
asbasbasbag100
(g116
g102
NtRp1116
(dp1117
g105
(dp1118
sg114
g890
sg107
(lp1119
g100
(g121
g102
NtRp1120
(dp1121
g105
(dp1122
g125
g126
ssg114
g1116
sg107
(lp1123
S'http_cache_control'
p1124
asbag100
(g121
g102
NtRp1125
(dp1126
g105
(dp1127
g132
g133
ssg114
g1116
sg107
(lp1128
S':'
asbag100
(g121
g102
NtRp1129
(dp1130
g105
(dp1131
sg114
g1116
sg107
(lp1132
g100
(g101
g102
NtRp1133
(dp1134
g105
(dp1135
g113
I4
ssg114
g1129
sg107
(lp1136
S'max-age=0'
p1137
asbasbasbag100
(g116
g102
NtRp1138
(dp1139
g105
(dp1140
sg114
g890
sg107
(lp1141
g100
(g121
g102
NtRp1142
(dp1143
g105
(dp1144
g125
g126
ssg114
g1138
sg107
(lp1145
S'http_connection'
p1146
asbag100
(g121
g102
NtRp1147
(dp1148
g105
(dp1149
g132
g133
ssg114
g1138
sg107
(lp1150
S':'
asbag100
(g121
g102
NtRp1151
(dp1152
g105
(dp1153
sg114
g1138
sg107
(lp1154
g100
(g101
g102
NtRp1155
(dp1156
g105
(dp1157
g113
I4
ssg114
g1151
sg107
(lp1158
S'keep-alive'
p1159
asbasbasbag100
(g116
g102
NtRp1160
(dp1161
g105
(dp1162
sg114
g890
sg107
(lp1163
g100
(g121
g102
NtRp1164
(dp1165
g105
(dp1166
g125
g126
ssg114
g1160
sg107
(lp1167
S'http_cookie'
p1168
asbag100
(g121
g102
NtRp1169
(dp1170
g105
(dp1171
g132
g133
ssg114
g1160
sg107
(lp1172
S':'
asbag100
(g121
g102
NtRp1173
(dp1174
g105
(dp1175
sg114
g1160
sg107
(lp1176
g100
(g101
g102
NtRp1177
(dp1178
g105
(dp1179
g113
I4
ssg114
g1173
sg107
(lp1180
S'session_id_welcome=127.0.0.1-dd4837a4-af09-46c7-8fed-40e148c13110; session_id_admin=127.0.0.1-d45a977f-85c0-49b7-974c-ddc798f86ec9; session_id_diet_exercise_log=127.0.0.1-a664d681-6449-4b12-a27a-364013383b1b'
p1181
asbasbasbag100
(g116
g102
NtRp1182
(dp1183
g105
(dp1184
sg114
g890
sg107
(lp1185
g100
(g121
g102
NtRp1186
(dp1187
g105
(dp1188
g125
g126
ssg114
g1182
sg107
(lp1189
S'http_host'
p1190
asbag100
(g121
g102
NtRp1191
(dp1192
g105
(dp1193
g132
g133
ssg114
g1182
sg107
(lp1194
S':'
asbag100
(g121
g102
NtRp1195
(dp1196
g105
(dp1197
sg114
g1182
sg107
(lp1198
g100
(g101
g102
NtRp1199
(dp1200
g105
(dp1201
g113
I4
ssg114
g1195
sg107
(lp1202
S'127.0.0.1:8000'
p1203
asbasbasbag100
(g116
g102
NtRp1204
(dp1205
g105
(dp1206
sg114
g890
sg107
(lp1207
g100
(g121
g102
NtRp1208
(dp1209
g105
(dp1210
g125
g126
ssg114
g1204
sg107
(lp1211
S'http_referer'
p1212
asbag100
(g121
g102
NtRp1213
(dp1214
g105
(dp1215
g132
g133
ssg114
g1204
sg107
(lp1216
S':'
asbag100
(g121
g102
NtRp1217
(dp1218
g105
(dp1219
sg114
g1204
sg107
(lp1220
g100
(g101
g102
NtRp1221
(dp1222
g105
(dp1223
g113
I4
ssg114
g1217
sg107
(lp1224
S'http://127.0.0.1:8000/diet_exercise_log/default/user/login?_next=/diet_exercise_log/default/add_diet_item'
p1225
asbasbasbag100
(g116
g102
NtRp1226
(dp1227
g105
(dp1228
sg114
g890
sg107
(lp1229
g100
(g121
g102
NtRp1230
(dp1231
g105
(dp1232
g125
g126
ssg114
g1226
sg107
(lp1233
S'http_user_agent'
p1234
asbag100
(g121
g102
NtRp1235
(dp1236
g105
(dp1237
g132
g133
ssg114
g1226
sg107
(lp1238
S':'
asbag100
(g121
g102
NtRp1239
(dp1240
g105
(dp1241
sg114
g1226
sg107
(lp1242
g100
(g101
g102
NtRp1243
(dp1244
g105
(dp1245
g113
I4
ssg114
g1239
sg107
(lp1246
S'Mozilla/5.0 (Windows NT 6.1; rv:16.0) Gecko/20100101 Firefox/16.0'
p1247
asbasbasbag100
(g116
g102
NtRp1248
(dp1249
g105
(dp1250
sg114
g890
sg107
(lp1251
g100
(g121
g102
NtRp1252
(dp1253
g105
(dp1254
g125
g126
ssg114
g1248
sg107
(lp1255
S'is_jython'
p1256
asbag100
(g121
g102
NtRp1257
(dp1258
g105
(dp1259
g132
g133
ssg114
g1248
sg107
(lp1260
S':'
asbag100
(g121
g102
NtRp1261
(dp1262
g105
(dp1263
sg114
g1248
sg107
(lp1264
g100
(g101
g102
NtRp1265
(dp1266
g105
(dp1267
g113
I4
ssg114
g1261
sg107
(lp1268
g143
asbasbasbag100
(g116
g102
NtRp1269
(dp1270
g105
(dp1271
sg114
g890
sg107
(lp1272
g100
(g121
g102
NtRp1273
(dp1274
g105
(dp1275
g125
g126
ssg114
g1269
sg107
(lp1276
S'is_pypy'
p1277
asbag100
(g121
g102
NtRp1278
(dp1279
g105
(dp1280
g132
g133
ssg114
g1269
sg107
(lp1281
S':'
asbag100
(g121
g102
NtRp1282
(dp1283
g105
(dp1284
sg114
g1269
sg107
(lp1285
g100
(g101
g102
NtRp1286
(dp1287
g105
(dp1288
g113
I4
ssg114
g1282
sg107
(lp1289
g143
asbasbasbag100
(g116
g102
NtRp1290
(dp1291
g105
(dp1292
sg114
g890
sg107
(lp1293
g100
(g121
g102
NtRp1294
(dp1295
g105
(dp1296
g125
g126
ssg114
g1290
sg107
(lp1297
S'local_hosts'
p1298
asbag100
(g121
g102
NtRp1299
(dp1300
g105
(dp1301
g132
g133
ssg114
g1290
sg107
(lp1302
S':'
asbag100
(g121
g102
NtRp1303
(dp1304
g105
(dp1305
sg114
g1290
sg107
(lp1306
g100
(g101
g102
NtRp1307
(dp1308
g105
(dp1309
g113
I4
ssg114
g1303
sg107
(lp1310
g100
(g109
g102
NtRp1311
(dp1312
g105
(dp1313
g113
I3
ssg114
Nsg107
(lp1314
g100
(g116
g102
NtRp1315
(dp1316
g105
(dp1317
sg114
g1311
sg107
(lp1318
g100
(g121
g102
NtRp1319
(dp1320
g105
(dp1321
sg114
g1315
sg107
(lp1322
g100
(g101
g102
NtRp1323
(dp1324
g105
(dp1325
g113
I3
ssg114
g1319
sg107
(lp1326
S'127.0.0.1'
p1327
asbasbasbag100
(g116
g102
NtRp1328
(dp1329
g105
(dp1330
sg114
g1311
sg107
(lp1331
g100
(g121
g102
NtRp1332
(dp1333
g105
(dp1334
sg114
g1328
sg107
(lp1335
g100
(g101
g102
NtRp1336
(dp1337
g105
(dp1338
g113
I3
ssg114
g1332
sg107
(lp1339
S'::ffff:127.0.0.1'
p1340
asbasbasbag100
(g116
g102
NtRp1341
(dp1342
g105
(dp1343
sg114
g1311
sg107
(lp1344
g100
(g121
g102
NtRp1345
(dp1346
g105
(dp1347
sg114
g1341
sg107
(lp1348
g100
(g101
g102
NtRp1349
(dp1350
g105
(dp1351
g113
I3
ssg114
g1345
sg107
(lp1352
S'matto-PC'
p1353
asbasbasbag100
(g116
g102
NtRp1354
(dp1355
g105
(dp1356
sg114
g1311
sg107
(lp1357
g100
(g121
g102
NtRp1358
(dp1359
g105
(dp1360
sg114
g1354
sg107
(lp1361
g100
(g101
g102
NtRp1362
(dp1363
g105
(dp1364
g113
I3
ssg114
g1358
sg107
(lp1365
S'matto-PC'
p1366
asbasbasbag100
(g116
g102
NtRp1367
(dp1368
g105
(dp1369
sg114
g1311
sg107
(lp1370
g100
(g121
g102
NtRp1371
(dp1372
g105
(dp1373
sg114
g1367
sg107
(lp1374
g100
(g101
g102
NtRp1375
(dp1376
g105
(dp1377
g113
I3
ssg114
g1371
sg107
(lp1378
S'169.254.104.109'
p1379
asbasbasbasbasbasbasbag100
(g116
g102
NtRp1380
(dp1381
g105
(dp1382
sg114
g890
sg107
(lp1383
g100
(g121
g102
NtRp1384
(dp1385
g105
(dp1386
g125
g126
ssg114
g1380
sg107
(lp1387
S'path_info'
p1388
asbag100
(g121
g102
NtRp1389
(dp1390
g105
(dp1391
g132
g133
ssg114
g1380
sg107
(lp1392
S':'
asbag100
(g121
g102
NtRp1393
(dp1394
g105
(dp1395
sg114
g1380
sg107
(lp1396
g100
(g101
g102
NtRp1397
(dp1398
g105
(dp1399
g113
I4
ssg114
g1393
sg107
(lp1400
S'/diet_exercise_log/default/add_diet_item'
p1401
asbasbasbag100
(g116
g102
NtRp1402
(dp1403
g105
(dp1404
sg114
g890
sg107
(lp1405
g100
(g121
g102
NtRp1406
(dp1407
g105
(dp1408
g125
g126
ssg114
g1402
sg107
(lp1409
S'query_string'
p1410
asbag100
(g121
g102
NtRp1411
(dp1412
g105
(dp1413
g132
g133
ssg114
g1402
sg107
(lp1414
S':'
asbag100
(g121
g102
NtRp1415
(dp1416
g105
(dp1417
sg114
g1402
sg107
(lp1418
g100
(g101
g102
NtRp1419
(dp1420
g105
(dp1421
g113
I4
ssg114
g1415
sg107
(lp1422
S''
asbasbasbag100
(g116
g102
NtRp1423
(dp1424
g105
(dp1425
sg114
g890
sg107
(lp1426
g100
(g121
g102
NtRp1427
(dp1428
g105
(dp1429
g125
g126
ssg114
g1423
sg107
(lp1430
S'remote_addr'
p1431
asbag100
(g121
g102
NtRp1432
(dp1433
g105
(dp1434
g132
g133
ssg114
g1423
sg107
(lp1435
S':'
asbag100
(g121
g102
NtRp1436
(dp1437
g105
(dp1438
sg114
g1423
sg107
(lp1439
g100
(g101
g102
NtRp1440
(dp1441
g105
(dp1442
g113
I4
ssg114
g1436
sg107
(lp1443
g255
asbasbasbag100
(g116
g102
NtRp1444
(dp1445
g105
(dp1446
sg114
g890
sg107
(lp1447
g100
(g121
g102
NtRp1448
(dp1449
g105
(dp1450
g125
g126
ssg114
g1444
sg107
(lp1451
S'remote_port'
p1452
asbag100
(g121
g102
NtRp1453
(dp1454
g105
(dp1455
g132
g133
ssg114
g1444
sg107
(lp1456
S':'
asbag100
(g121
g102
NtRp1457
(dp1458
g105
(dp1459
sg114
g1444
sg107
(lp1460
g100
(g101
g102
NtRp1461
(dp1462
g105
(dp1463
g113
I4
ssg114
g1457
sg107
(lp1464
S'63042'
p1465
asbasbasbag100
(g116
g102
NtRp1466
(dp1467
g105
(dp1468
sg114
g890
sg107
(lp1469
g100
(g121
g102
NtRp1470
(dp1471
g105
(dp1472
g125
g126
ssg114
g1466
sg107
(lp1473
S'request_method'
p1474
asbag100
(g121
g102
NtRp1475
(dp1476
g105
(dp1477
g132
g133
ssg114
g1466
sg107
(lp1478
S':'
asbag100
(g121
g102
NtRp1479
(dp1480
g105
(dp1481
sg114
g1466
sg107
(lp1482
g100
(g101
g102
NtRp1483
(dp1484
g105
(dp1485
g113
I4
ssg114
g1479
sg107
(lp1486
S'GET'
p1487
asbasbasbag100
(g116
g102
NtRp1488
(dp1489
g105
(dp1490
sg114
g890
sg107
(lp1491
g100
(g121
g102
NtRp1492
(dp1493
g105
(dp1494
g125
g126
ssg114
g1488
sg107
(lp1495
S'request_uri'
p1496
asbag100
(g121
g102
NtRp1497
(dp1498
g105
(dp1499
g132
g133
ssg114
g1488
sg107
(lp1500
S':'
asbag100
(g121
g102
NtRp1501
(dp1502
g105
(dp1503
sg114
g1488
sg107
(lp1504
g100
(g101
g102
NtRp1505
(dp1506
g105
(dp1507
g113
I4
ssg114
g1501
sg107
(lp1508
g1401
asbasbasbag100
(g116
g102
NtRp1509
(dp1510
g105
(dp1511
sg114
g890
sg107
(lp1512
g100
(g121
g102
NtRp1513
(dp1514
g105
(dp1515
g125
g126
ssg114
g1509
sg107
(lp1516
S'script_name'
p1517
asbag100
(g121
g102
NtRp1518
(dp1519
g105
(dp1520
g132
g133
ssg114
g1509
sg107
(lp1521
S':'
asbag100
(g121
g102
NtRp1522
(dp1523
g105
(dp1524
sg114
g1509
sg107
(lp1525
g100
(g101
g102
NtRp1526
(dp1527
g105
(dp1528
g113
I4
ssg114
g1522
sg107
(lp1529
S''
asbasbasbag100
(g116
g102
NtRp1530
(dp1531
g105
(dp1532
sg114
g890
sg107
(lp1533
g100
(g121
g102
NtRp1534
(dp1535
g105
(dp1536
g125
g126
ssg114
g1530
sg107
(lp1537
S'server_name'
p1538
asbag100
(g121
g102
NtRp1539
(dp1540
g105
(dp1541
g132
g133
ssg114
g1530
sg107
(lp1542
S':'
asbag100
(g121
g102
NtRp1543
(dp1544
g105
(dp1545
sg114
g1530
sg107
(lp1546
g100
(g101
g102
NtRp1547
(dp1548
g105
(dp1549
g113
I4
ssg114
g1543
sg107
(lp1550
g1366
asbasbasbag100
(g116
g102
NtRp1551
(dp1552
g105
(dp1553
sg114
g890
sg107
(lp1554
g100
(g121
g102
NtRp1555
(dp1556
g105
(dp1557
g125
g126
ssg114
g1551
sg107
(lp1558
S'server_port'
p1559
asbag100
(g121
g102
NtRp1560
(dp1561
g105
(dp1562
g132
g133
ssg114
g1551
sg107
(lp1563
S':'
asbag100
(g121
g102
NtRp1564
(dp1565
g105
(dp1566
sg114
g1551
sg107
(lp1567
g100
(g101
g102
NtRp1568
(dp1569
g105
(dp1570
g113
I4
ssg114
g1564
sg107
(lp1571
S'8000'
p1572
asbasbasbag100
(g116
g102
NtRp1573
(dp1574
g105
(dp1575
sg114
g890
sg107
(lp1576
g100
(g121
g102
NtRp1577
(dp1578
g105
(dp1579
g125
g126
ssg114
g1573
sg107
(lp1580
S'server_protocol'
p1581
asbag100
(g121
g102
NtRp1582
(dp1583
g105
(dp1584
g132
g133
ssg114
g1573
sg107
(lp1585
S':'
asbag100
(g121
g102
NtRp1586
(dp1587
g105
(dp1588
sg114
g1573
sg107
(lp1589
g100
(g101
g102
NtRp1590
(dp1591
g105
(dp1592
g113
I4
ssg114
g1586
sg107
(lp1593
S'HTTP/1.1'
p1594
asbasbasbag100
(g116
g102
NtRp1595
(dp1596
g105
(dp1597
sg114
g890
sg107
(lp1598
g100
(g121
g102
NtRp1599
(dp1600
g105
(dp1601
g125
g126
ssg114
g1595
sg107
(lp1602
S'server_software'
p1603
asbag100
(g121
g102
NtRp1604
(dp1605
g105
(dp1606
g132
g133
ssg114
g1595
sg107
(lp1607
S':'
asbag100
(g121
g102
NtRp1608
(dp1609
g105
(dp1610
sg114
g1595
sg107
(lp1611
g100
(g101
g102
NtRp1612
(dp1613
g105
(dp1614
g113
I4
ssg114
g1608
sg107
(lp1615
S'Rocket 1.2.5'
p1616
asbasbasbag100
(g116
g102
NtRp1617
(dp1618
g105
(dp1619
sg114
g890
sg107
(lp1620
g100
(g121
g102
NtRp1621
(dp1622
g105
(dp1623
g125
g126
ssg114
g1617
sg107
(lp1624
S'web2py_path'
p1625
asbag100
(g121
g102
NtRp1626
(dp1627
g105
(dp1628
g132
g133
ssg114
g1617
sg107
(lp1629
S':'
asbag100
(g121
g102
NtRp1630
(dp1631
g105
(dp1632
sg114
g1617
sg107
(lp1633
g100
(g101
g102
NtRp1634
(dp1635
g105
(dp1636
g113
I4
ssg114
g1630
sg107
(lp1637
g937
asbasbasbag100
(g116
g102
NtRp1638
(dp1639
g105
(dp1640
sg114
g890
sg107
(lp1641
g100
(g121
g102
NtRp1642
(dp1643
g105
(dp1644
g125
g126
ssg114
g1638
sg107
(lp1645
S'web2py_version'
p1646
asbag100
(g121
g102
NtRp1647
(dp1648
g105
(dp1649
g132
g133
ssg114
g1638
sg107
(lp1650
S':'
asbag100
(g121
g102
NtRp1651
(dp1652
g105
(dp1653
sg114
g1638
sg107
(lp1654
g100
(g101
g102
NtRp1655
(dp1656
g105
(dp1657
g113
I4
ssg114
g1651
sg107
(lp1658
g100
(g109
g102
NtRp1659
(dp1660
g105
(dp1661
g113
I3
ssg114
Nsg107
(lp1662
g100
(g116
g102
NtRp1663
(dp1664
g105
(dp1665
sg114
g1659
sg107
(lp1666
g100
(g121
g102
NtRp1667
(dp1668
g105
(dp1669
sg114
g1663
sg107
(lp1670
g100
(g101
g102
NtRp1671
(dp1672
g105
(dp1673
g113
I3
ssg114
g1667
sg107
(lp1674
S'2'
asbasbasbag100
(g116
g102
NtRp1675
(dp1676
g105
(dp1677
sg114
g1659
sg107
(lp1678
g100
(g121
g102
NtRp1679
(dp1680
g105
(dp1681
sg114
g1675
sg107
(lp1682
g100
(g101
g102
NtRp1683
(dp1684
g105
(dp1685
g113
I3
ssg114
g1679
sg107
(lp1686
S'2'
asbasbasbag100
(g116
g102
NtRp1687
(dp1688
g105
(dp1689
sg114
g1659
sg107
(lp1690
g100
(g121
g102
NtRp1691
(dp1692
g105
(dp1693
sg114
g1687
sg107
(lp1694
g100
(g101
g102
NtRp1695
(dp1696
g105
(dp1697
g113
I3
ssg114
g1691
sg107
(lp1698
S'1'
asbasbasbag100
(g116
g102
NtRp1699
(dp1700
g105
(dp1701
sg114
g1659
sg107
(lp1702
g100
(g121
g102
NtRp1703
(dp1704
g105
(dp1705
sg114
g1699
sg107
(lp1706
g100
(g101
g102
NtRp1707
(dp1708
g105
(dp1709
g113
I3
ssg114
g1703
sg107
(lp1710
S'datetime.datetime(2012, 10, 21, 16, 57, 4)'
p1711
asbasbasbag100
(g116
g102
NtRp1712
(dp1713
g105
(dp1714
sg114
g1659
sg107
(lp1715
g100
(g121
g102
NtRp1716
(dp1717
g105
(dp1718
sg114
g1712
sg107
(lp1719
g100
(g101
g102
NtRp1720
(dp1721
g105
(dp1722
g113
I3
ssg114
g1716
sg107
(lp1723
S'stable'
p1724
asbasbasbasbasbasbasbag100
(g116
g102
NtRp1725
(dp1726
g105
(dp1727
sg114
g890
sg107
(lp1728
g100
(g121
g102
NtRp1729
(dp1730
g105
(dp1731
g125
g126
ssg114
g1725
sg107
(lp1732
S'wsgi_errors'
p1733
asbag100
(g121
g102
NtRp1734
(dp1735
g105
(dp1736
g132
g133
ssg114
g1725
sg107
(lp1737
S':'
asbag100
(g121
g102
NtRp1738
(dp1739
g105
(dp1740
sg114
g1725
sg107
(lp1741
g100
(g101
g102
NtRp1742
(dp1743
g105
(dp1744
g113
I4
ssg114
g1738
sg107
(lp1745
S"<open file '<stderr>', mode 'w' at 0x004350D0>"
p1746
asbasbasbag100
(g116
g102
NtRp1747
(dp1748
g105
(dp1749
sg114
g890
sg107
(lp1750
g100
(g121
g102
NtRp1751
(dp1752
g105
(dp1753
g125
g126
ssg114
g1747
sg107
(lp1754
S'wsgi_file_wrapper'
p1755
asbag100
(g121
g102
NtRp1756
(dp1757
g105
(dp1758
g132
g133
ssg114
g1747
sg107
(lp1759
S':'
asbag100
(g121
g102
NtRp1760
(dp1761
g105
(dp1762
sg114
g1747
sg107
(lp1763
g100
(g101
g102
NtRp1764
(dp1765
g105
(dp1766
g113
I4
ssg114
g1760
sg107
(lp1767
S'<class wsgiref.util.FileWrapper at 0x0239E2D0>'
p1768
asbasbasbag100
(g116
g102
NtRp1769
(dp1770
g105
(dp1771
sg114
g890
sg107
(lp1772
g100
(g121
g102
NtRp1773
(dp1774
g105
(dp1775
g125
g126
ssg114
g1769
sg107
(lp1776
S'wsgi_input'
p1777
asbag100
(g121
g102
NtRp1778
(dp1779
g105
(dp1780
g132
g133
ssg114
g1769
sg107
(lp1781
S':'
asbag100
(g121
g102
NtRp1782
(dp1783
g105
(dp1784
sg114
g1769
sg107
(lp1785
g100
(g101
g102
NtRp1786
(dp1787
g105
(dp1788
g113
I4
ssg114
g1782
sg107
(lp1789
S'<socket._fileobject object at 0x05ADDC30>'
p1790
asbasbasbag100
(g116
g102
NtRp1791
(dp1792
g105
(dp1793
sg114
g890
sg107
(lp1794
g100
(g121
g102
NtRp1795
(dp1796
g105
(dp1797
g125
g126
ssg114
g1791
sg107
(lp1798
S'wsgi_multiprocess'
p1799
asbag100
(g121
g102
NtRp1800
(dp1801
g105
(dp1802
g132
g133
ssg114
g1791
sg107
(lp1803
S':'
asbag100
(g121
g102
NtRp1804
(dp1805
g105
(dp1806
sg114
g1791
sg107
(lp1807
g100
(g101
g102
NtRp1808
(dp1809
g105
(dp1810
g113
I4
ssg114
g1804
sg107
(lp1811
g143
asbasbasbag100
(g116
g102
NtRp1812
(dp1813
g105
(dp1814
sg114
g890
sg107
(lp1815
g100
(g121
g102
NtRp1816
(dp1817
g105
(dp1818
g125
g126
ssg114
g1812
sg107
(lp1819
S'wsgi_multithread'
p1820
asbag100
(g121
g102
NtRp1821
(dp1822
g105
(dp1823
g132
g133
ssg114
g1812
sg107
(lp1824
S':'
asbag100
(g121
g102
NtRp1825
(dp1826
g105
(dp1827
sg114
g1812
sg107
(lp1828
g100
(g101
g102
NtRp1829
(dp1830
g105
(dp1831
g113
I4
ssg114
g1825
sg107
(lp1832
S'True'
p1833
asbasbasbag100
(g116
g102
NtRp1834
(dp1835
g105
(dp1836
sg114
g890
sg107
(lp1837
g100
(g121
g102
NtRp1838
(dp1839
g105
(dp1840
g125
g126
ssg114
g1834
sg107
(lp1841
S'wsgi_run_once'
p1842
asbag100
(g121
g102
NtRp1843
(dp1844
g105
(dp1845
g132
g133
ssg114
g1834
sg107
(lp1846
S':'
asbag100
(g121
g102
NtRp1847
(dp1848
g105
(dp1849
sg114
g1834
sg107
(lp1850
g100
(g101
g102
NtRp1851
(dp1852
g105
(dp1853
g113
I4
ssg114
g1847
sg107
(lp1854
g143
asbasbasbag100
(g116
g102
NtRp1855
(dp1856
g105
(dp1857
sg114
g890
sg107
(lp1858
g100
(g121
g102
NtRp1859
(dp1860
g105
(dp1861
g125
g126
ssg114
g1855
sg107
(lp1862
S'wsgi_url_scheme'
p1863
asbag100
(g121
g102
NtRp1864
(dp1865
g105
(dp1866
g132
g133
ssg114
g1855
sg107
(lp1867
S':'
asbag100
(g121
g102
NtRp1868
(dp1869
g105
(dp1870
sg114
g1855
sg107
(lp1871
g100
(g101
g102
NtRp1872
(dp1873
g105
(dp1874
g113
I4
ssg114
g1868
sg107
(lp1875
S'http'
p1876
asbasbasbag100
(g116
g102
NtRp1877
(dp1878
g105
(dp1879
sg114
g890
sg107
(lp1880
g100
(g121
g102
NtRp1881
(dp1882
g105
(dp1883
g125
g126
ssg114
g1877
sg107
(lp1884
S'wsgi_version'
p1885
asbag100
(g121
g102
NtRp1886
(dp1887
g105
(dp1888
g132
g133
ssg114
g1877
sg107
(lp1889
S':'
asbag100
(g121
g102
NtRp1890
(dp1891
g105
(dp1892
sg114
g1877
sg107
(lp1893
g100
(g101
g102
NtRp1894
(dp1895
g105
(dp1896
g113
I4
ssg114
g1890
sg107
(lp1897
g100
(g109
g102
NtRp1898
(dp1899
g105
(dp1900
g113
I3
ssg114
Nsg107
(lp1901
g100
(g116
g102
NtRp1902
(dp1903
g105
(dp1904
sg114
g1898
sg107
(lp1905
g100
(g121
g102
NtRp1906
(dp1907
g105
(dp1908
sg114
g1902
sg107
(lp1909
g100
(g101
g102
NtRp1910
(dp1911
g105
(dp1912
g113
I3
ssg114
g1906
sg107
(lp1913
S'1'
asbasbasbag100
(g116
g102
NtRp1914
(dp1915
g105
(dp1916
sg114
g1898
sg107
(lp1917
g100
(g121
g102
NtRp1918
(dp1919
g105
(dp1920
sg114
g1914
sg107
(lp1921
g100
(g101
g102
NtRp1922
(dp1923
g105
(dp1924
g113
I3
ssg114
g1918
sg107
(lp1925
S'0'
asbasbasbasbasbasbasbasbasbasbasbag100
(g116
g102
NtRp1926
(dp1927
g105
(dp1928
sg114
g110
sg107
(lp1929
g100
(g121
g102
NtRp1930
(dp1931
g105
(dp1932
g125
g126
ssg114
g1926
sg107
(lp1933
S'extension'
p1934
asbag100
(g121
g102
NtRp1935
(dp1936
g105
(dp1937
g132
g133
ssg114
g1926
sg107
(lp1938
S':'
asbag100
(g121
g102
NtRp1939
(dp1940
g105
(dp1941
sg114
g1926
sg107
(lp1942
g100
(g101
g102
NtRp1943
(dp1944
g105
(dp1945
g113
I5
ssg114
g1939
sg107
(lp1946
S'html'
p1947
asbasbasbag100
(g116
g102
NtRp1948
(dp1949
g105
(dp1950
sg114
g110
sg107
(lp1951
g100
(g121
g102
NtRp1952
(dp1953
g105
(dp1954
g125
g126
ssg114
g1948
sg107
(lp1955
S'folder'
p1956
asbag100
(g121
g102
NtRp1957
(dp1958
g105
(dp1959
g132
g133
ssg114
g1948
sg107
(lp1960
S':'
asbag100
(g121
g102
NtRp1961
(dp1962
g105
(dp1963
sg114
g1948
sg107
(lp1964
g100
(g101
g102
NtRp1965
(dp1966
g105
(dp1967
g113
I5
ssg114
g1961
sg107
(lp1968
S'C:\\Users\\matt\\Desktop\\web2py\\applications\\diet_exercise_log\\'
p1969
asbasbasbag100
(g116
g102
NtRp1970
(dp1971
g105
(dp1972
sg114
g110
sg107
(lp1973
g100
(g121
g102
NtRp1974
(dp1975
g105
(dp1976
g125
g126
ssg114
g1970
sg107
(lp1977
S'function'
p1978
asbag100
(g121
g102
NtRp1979
(dp1980
g105
(dp1981
g132
g133
ssg114
g1970
sg107
(lp1982
S':'
asbag100
(g121
g102
NtRp1983
(dp1984
g105
(dp1985
sg114
g1970
sg107
(lp1986
g100
(g101
g102
NtRp1987
(dp1988
g105
(dp1989
g113
I5
ssg114
g1983
sg107
(lp1990
S'add_diet_item'
p1991
asbasbasbag100
(g116
g102
NtRp1992
(dp1993
g105
(dp1994
sg114
g110
sg107
(lp1995
g100
(g121
g102
NtRp1996
(dp1997
g105
(dp1998
g125
g126
ssg114
g1992
sg107
(lp1999
S'get_vars'
p2000
asbag100
(g121
g102
NtRp2001
(dp2002
g105
(dp2003
g132
g133
ssg114
g1992
sg107
(lp2004
S':'
asbag100
(g121
g102
NtRp2005
(dp2006
g105
(dp2007
sg114
g1992
sg107
(lp2008
g100
(g101
g102
NtRp2009
(dp2010
g105
(dp2011
g113
I5
ssg114
g2005
sg107
(lp2012
g100
(g109
g102
NtRp2013
(dp2014
g105
(dp2015
g113
I4
ssg114
Nsg107
(lp2016
sbasbasbasbag100
(g116
g102
NtRp2017
(dp2018
g105
(dp2019
sg114
g110
sg107
(lp2020
g100
(g121
g102
NtRp2021
(dp2022
g105
(dp2023
g125
g126
ssg114
g2017
sg107
(lp2024
S'global_settings'
p2025
asbag100
(g121
g102
NtRp2026
(dp2027
g105
(dp2028
g132
g133
ssg114
g2017
sg107
(lp2029
S':'
asbag100
(g121
g102
NtRp2030
(dp2031
g105
(dp2032
sg114
g2017
sg107
(lp2033
g100
(g101
g102
NtRp2034
(dp2035
g105
(dp2036
g113
I5
ssg114
g2030
sg107
(lp2037
g100
(g109
g102
NtRp2038
(dp2039
g105
(dp2040
g113
I4
ssg114
Nsg107
(lp2041
g100
(g116
g102
NtRp2042
(dp2043
g105
(dp2044
sg114
g2038
sg107
(lp2045
g100
(g121
g102
NtRp2046
(dp2047
g105
(dp2048
g125
g126
ssg114
g2042
sg107
(lp2049
g902
asbag100
(g121
g102
NtRp2050
(dp2051
g105
(dp2052
g132
g133
ssg114
g2042
sg107
(lp2053
S':'
asbag100
(g121
g102
NtRp2054
(dp2055
g105
(dp2056
sg114
g2042
sg107
(lp2057
g100
(g101
g102
NtRp2058
(dp2059
g105
(dp2060
g113
I4
ssg114
g2054
sg107
(lp2061
S"set(['C:\\\\Users\\\\matt\\\\Desktop\\\\web2py\\\\applications\\\\admin\\\\', 'C:\\\\Users\\\\matt\\\\Desktop\\\\web2py\\\\applications\\\\welcome\\\\', 'C:\\\\Users\\\\matt\\\\Desktop\\\\web2py\\\\applications\\\\diet_exercise_log\\\\'])"
p2062
asbasbasbag100
(g116
g102
NtRp2063
(dp2064
g105
(dp2065
sg114
g2038
sg107
(lp2066
g100
(g121
g102
NtRp2067
(dp2068
g105
(dp2069
g125
g126
ssg114
g2063
sg107
(lp2070
g924
asbag100
(g121
g102
NtRp2071
(dp2072
g105
(dp2073
g132
g133
ssg114
g2063
sg107
(lp2074
S':'
asbag100
(g121
g102
NtRp2075
(dp2076
g105
(dp2077
sg114
g2063
sg107
(lp2078
g100
(g101
g102
NtRp2079
(dp2080
g105
(dp2081
g113
I4
ssg114
g2075
sg107
(lp2082
g937
asbasbasbag100
(g116
g102
NtRp2083
(dp2084
g105
(dp2085
sg114
g2038
sg107
(lp2086
g100
(g121
g102
NtRp2087
(dp2088
g105
(dp2089
g125
g126
ssg114
g2083
sg107
(lp2090
g946
asbag100
(g121
g102
NtRp2091
(dp2092
g105
(dp2093
g132
g133
ssg114
g2083
sg107
(lp2094
S':'
asbag100
(g121
g102
NtRp2095
(dp2096
g105
(dp2097
sg114
g2083
sg107
(lp2098
g100
(g101
g102
NtRp2099
(dp2100
g105
(dp2101
g113
I4
ssg114
g2095
sg107
(lp2102
g100
(g109
g102
NtRp2103
(dp2104
g105
(dp2105
g113
I3
ssg114
Nsg107
(lp2106
sbasbasbasbag100
(g116
g102
NtRp2107
(dp2108
g105
(dp2109
sg114
g2038
sg107
(lp2110
g100
(g121
g102
NtRp2111
(dp2112
g105
(dp2113
g125
g126
ssg114
g2107
sg107
(lp2114
g971
asbag100
(g121
g102
NtRp2115
(dp2116
g105
(dp2117
g132
g133
ssg114
g2107
sg107
(lp2118
S':'
asbag100
(g121
g102
NtRp2119
(dp2120
g105
(dp2121
sg114
g2107
sg107
(lp2122
g100
(g101
g102
NtRp2123
(dp2124
g105
(dp2125
g113
I4
ssg114
g2119
sg107
(lp2126
S"<Values at 0x2494670: {'verbose': False, 'ip': '127.0.0.1', 'with_scheduler': False, 'ips': [], 'shutdown_timeout': 5, 'taskbar': False, 'port': 8000, 'maxthreads': None, 'softcron': False, 'server_name': 'matto-PC', 'bpython': False, 'nogui': False, 'pid_filename': 'httpserver.pid', 'extcron': False, 'runcron': False, 'run_system_tests': False, 'test': None, 'folder': 'C:\\\\Users\\\\matt\\\\Desktop\\\\web2py', 'config': '', 'import_models': False, 'winservice': '', 'shell': None, 'run': '', 'log_filename': 'httpserver.log', 'debuglevel': 30, 'args': [''], 'socket_timeout': 5, 'ssl_ca_certificate': None, 'scheduler': None, 'profiler_filename': None, 'ssl_private_key': '', 'scheduler_groups': None, 'password': '<ask>', 'request_queue_size': 5, 'ssl_certificate': '', 'cronjob': False, 'numthreads': None, 'quiet': False, 'interfaces': None, 'minthreads': None, 'timeout': 10, 'plain': False, 'nobanner': False}>"
p2127
asbasbasbag100
(g116
g102
NtRp2128
(dp2129
g105
(dp2130
sg114
g2038
sg107
(lp2131
g100
(g121
g102
NtRp2132
(dp2133
g105
(dp2134
g125
g126
ssg114
g2128
sg107
(lp2135
g993
asbag100
(g121
g102
NtRp2136
(dp2137
g105
(dp2138
g132
g133
ssg114
g2128
sg107
(lp2139
S':'
asbag100
(g121
g102
NtRp2140
(dp2141
g105
(dp2142
sg114
g2128
sg107
(lp2143
g100
(g101
g102
NtRp2144
(dp2145
g105
(dp2146
g113
I4
ssg114
g2140
sg107
(lp2147
S'set([])'
p2148
asbasbasbag100
(g116
g102
NtRp2149
(dp2150
g105
(dp2151
sg114
g2038
sg107
(lp2152
g100
(g121
g102
NtRp2153
(dp2154
g105
(dp2155
g125
g126
ssg114
g2149
sg107
(lp2156
g1015
asbag100
(g121
g102
NtRp2157
(dp2158
g105
(dp2159
g132
g133
ssg114
g2149
sg107
(lp2160
S':'
asbag100
(g121
g102
NtRp2161
(dp2162
g105
(dp2163
sg114
g2149
sg107
(lp2164
g100
(g101
g102
NtRp2165
(dp2166
g105
(dp2167
g113
I4
ssg114
g2161
sg107
(lp2168
g143
asbasbasbag100
(g116
g102
NtRp2169
(dp2170
g105
(dp2171
sg114
g2038
sg107
(lp2172
g100
(g121
g102
NtRp2173
(dp2174
g105
(dp2175
g125
g126
ssg114
g2169
sg107
(lp2176
g1036
asbag100
(g121
g102
NtRp2177
(dp2178
g105
(dp2179
g132
g133
ssg114
g2169
sg107
(lp2180
S':'
asbag100
(g121
g102
NtRp2181
(dp2182
g105
(dp2183
sg114
g2169
sg107
(lp2184
g100
(g101
g102
NtRp2185
(dp2186
g105
(dp2187
g113
I4
ssg114
g2181
sg107
(lp2188
g1049
asbasbasbag100
(g116
g102
NtRp2189
(dp2190
g105
(dp2191
sg114
g2038
sg107
(lp2192
g100
(g121
g102
NtRp2193
(dp2194
g105
(dp2195
g125
g126
ssg114
g2189
sg107
(lp2196
g1256
asbag100
(g121
g102
NtRp2197
(dp2198
g105
(dp2199
g132
g133
ssg114
g2189
sg107
(lp2200
S':'
asbag100
(g121
g102
NtRp2201
(dp2202
g105
(dp2203
sg114
g2189
sg107
(lp2204
g100
(g101
g102
NtRp2205
(dp2206
g105
(dp2207
g113
I4
ssg114
g2201
sg107
(lp2208
g143
asbasbasbag100
(g116
g102
NtRp2209
(dp2210
g105
(dp2211
sg114
g2038
sg107
(lp2212
g100
(g121
g102
NtRp2213
(dp2214
g105
(dp2215
g125
g126
ssg114
g2209
sg107
(lp2216
g1277
asbag100
(g121
g102
NtRp2217
(dp2218
g105
(dp2219
g132
g133
ssg114
g2209
sg107
(lp2220
S':'
asbag100
(g121
g102
NtRp2221
(dp2222
g105
(dp2223
sg114
g2209
sg107
(lp2224
g100
(g101
g102
NtRp2225
(dp2226
g105
(dp2227
g113
I4
ssg114
g2221
sg107
(lp2228
g143
asbasbasbag100
(g116
g102
NtRp2229
(dp2230
g105
(dp2231
sg114
g2038
sg107
(lp2232
g100
(g121
g102
NtRp2233
(dp2234
g105
(dp2235
g125
g126
ssg114
g2229
sg107
(lp2236
g1298
asbag100
(g121
g102
NtRp2237
(dp2238
g105
(dp2239
g132
g133
ssg114
g2229
sg107
(lp2240
S':'
asbag100
(g121
g102
NtRp2241
(dp2242
g105
(dp2243
sg114
g2229
sg107
(lp2244
g100
(g101
g102
NtRp2245
(dp2246
g105
(dp2247
g113
I4
ssg114
g2241
sg107
(lp2248
g100
(g109
g102
NtRp2249
(dp2250
g105
(dp2251
g113
I3
ssg114
Nsg107
(lp2252
g100
(g116
g102
NtRp2253
(dp2254
g105
(dp2255
sg114
g2249
sg107
(lp2256
g100
(g121
g102
NtRp2257
(dp2258
g105
(dp2259
sg114
g2253
sg107
(lp2260
g100
(g101
g102
NtRp2261
(dp2262
g105
(dp2263
g113
I3
ssg114
g2257
sg107
(lp2264
g1327
asbasbasbag100
(g116
g102
NtRp2265
(dp2266
g105
(dp2267
sg114
g2249
sg107
(lp2268
g100
(g121
g102
NtRp2269
(dp2270
g105
(dp2271
sg114
g2265
sg107
(lp2272
g100
(g101
g102
NtRp2273
(dp2274
g105
(dp2275
g113
I3
ssg114
g2269
sg107
(lp2276
g1340
asbasbasbag100
(g116
g102
NtRp2277
(dp2278
g105
(dp2279
sg114
g2249
sg107
(lp2280
g100
(g121
g102
NtRp2281
(dp2282
g105
(dp2283
sg114
g2277
sg107
(lp2284
g100
(g101
g102
NtRp2285
(dp2286
g105
(dp2287
g113
I3
ssg114
g2281
sg107
(lp2288
g1353
asbasbasbag100
(g116
g102
NtRp2289
(dp2290
g105
(dp2291
sg114
g2249
sg107
(lp2292
g100
(g121
g102
NtRp2293
(dp2294
g105
(dp2295
sg114
g2289
sg107
(lp2296
g100
(g101
g102
NtRp2297
(dp2298
g105
(dp2299
g113
I3
ssg114
g2293
sg107
(lp2300
g1366
asbasbasbag100
(g116
g102
NtRp2301
(dp2302
g105
(dp2303
sg114
g2249
sg107
(lp2304
g100
(g121
g102
NtRp2305
(dp2306
g105
(dp2307
sg114
g2301
sg107
(lp2308
g100
(g101
g102
NtRp2309
(dp2310
g105
(dp2311
g113
I3
ssg114
g2305
sg107
(lp2312
g1379
asbasbasbasbasbasbasbag100
(g116
g102
NtRp2313
(dp2314
g105
(dp2315
sg114
g2038
sg107
(lp2316
g100
(g121
g102
NtRp2317
(dp2318
g105
(dp2319
g125
g126
ssg114
g2313
sg107
(lp2320
g1646
asbag100
(g121
g102
NtRp2321
(dp2322
g105
(dp2323
g132
g133
ssg114
g2313
sg107
(lp2324
S':'
asbag100
(g121
g102
NtRp2325
(dp2326
g105
(dp2327
sg114
g2313
sg107
(lp2328
g100
(g101
g102
NtRp2329
(dp2330
g105
(dp2331
g113
I4
ssg114
g2325
sg107
(lp2332
g100
(g109
g102
NtRp2333
(dp2334
g105
(dp2335
g113
I3
ssg114
Nsg107
(lp2336
g100
(g116
g102
NtRp2337
(dp2338
g105
(dp2339
sg114
g2333
sg107
(lp2340
g100
(g121
g102
NtRp2341
(dp2342
g105
(dp2343
sg114
g2337
sg107
(lp2344
g100
(g101
g102
NtRp2345
(dp2346
g105
(dp2347
g113
I3
ssg114
g2341
sg107
(lp2348
S'2'
asbasbasbag100
(g116
g102
NtRp2349
(dp2350
g105
(dp2351
sg114
g2333
sg107
(lp2352
g100
(g121
g102
NtRp2353
(dp2354
g105
(dp2355
sg114
g2349
sg107
(lp2356
g100
(g101
g102
NtRp2357
(dp2358
g105
(dp2359
g113
I3
ssg114
g2353
sg107
(lp2360
S'2'
asbasbasbag100
(g116
g102
NtRp2361
(dp2362
g105
(dp2363
sg114
g2333
sg107
(lp2364
g100
(g121
g102
NtRp2365
(dp2366
g105
(dp2367
sg114
g2361
sg107
(lp2368
g100
(g101
g102
NtRp2369
(dp2370
g105
(dp2371
g113
I3
ssg114
g2365
sg107
(lp2372
S'1'
asbasbasbag100
(g116
g102
NtRp2373
(dp2374
g105
(dp2375
sg114
g2333
sg107
(lp2376
g100
(g121
g102
NtRp2377
(dp2378
g105
(dp2379
sg114
g2373
sg107
(lp2380
g100
(g101
g102
NtRp2381
(dp2382
g105
(dp2383
g113
I3
ssg114
g2377
sg107
(lp2384
S'datetime.datetime(2012, 10, 21, 16, 57, 4)'
p2385
asbasbasbag100
(g116
g102
NtRp2386
(dp2387
g105
(dp2388
sg114
g2333
sg107
(lp2389
g100
(g121
g102
NtRp2390
(dp2391
g105
(dp2392
sg114
g2386
sg107
(lp2393
g100
(g101
g102
NtRp2394
(dp2395
g105
(dp2396
g113
I3
ssg114
g2390
sg107
(lp2397
g1724
asbasbasbasbasbasbasbasbasbasbasbag100
(g116
g102
NtRp2398
(dp2399
g105
(dp2400
sg114
g110
sg107
(lp2401
g100
(g121
g102
NtRp2402
(dp2403
g105
(dp2404
g125
g126
ssg114
g2398
sg107
(lp2405
S'is_https'
p2406
asbag100
(g121
g102
NtRp2407
(dp2408
g105
(dp2409
g132
g133
ssg114
g2398
sg107
(lp2410
S':'
asbag100
(g121
g102
NtRp2411
(dp2412
g105
(dp2413
sg114
g2398
sg107
(lp2414
g100
(g101
g102
NtRp2415
(dp2416
g105
(dp2417
g113
I5
ssg114
g2411
sg107
(lp2418
g143
asbasbasbag100
(g116
g102
NtRp2419
(dp2420
g105
(dp2421
sg114
g110
sg107
(lp2422
g100
(g121
g102
NtRp2423
(dp2424
g105
(dp2425
g125
g126
ssg114
g2419
sg107
(lp2426
S'is_local'
p2427
asbag100
(g121
g102
NtRp2428
(dp2429
g105
(dp2430
g132
g133
ssg114
g2419
sg107
(lp2431
S':'
asbag100
(g121
g102
NtRp2432
(dp2433
g105
(dp2434
sg114
g2419
sg107
(lp2435
g100
(g101
g102
NtRp2436
(dp2437
g105
(dp2438
g113
I5
ssg114
g2432
sg107
(lp2439
g1833
asbasbasbag100
(g116
g102
NtRp2440
(dp2441
g105
(dp2442
sg114
g110
sg107
(lp2443
g100
(g121
g102
NtRp2444
(dp2445
g105
(dp2446
g125
g126
ssg114
g2440
sg107
(lp2447
S'is_restful'
p2448
asbag100
(g121
g102
NtRp2449
(dp2450
g105
(dp2451
g132
g133
ssg114
g2440
sg107
(lp2452
S':'
asbag100
(g121
g102
NtRp2453
(dp2454
g105
(dp2455
sg114
g2440
sg107
(lp2456
g100
(g101
g102
NtRp2457
(dp2458
g105
(dp2459
g113
I5
ssg114
g2453
sg107
(lp2460
g143
asbasbasbag100
(g116
g102
NtRp2461
(dp2462
g105
(dp2463
sg114
g110
sg107
(lp2464
g100
(g121
g102
NtRp2465
(dp2466
g105
(dp2467
g125
g126
ssg114
g2461
sg107
(lp2468
S'now'
p2469
asbag100
(g121
g102
NtRp2470
(dp2471
g105
(dp2472
g132
g133
ssg114
g2461
sg107
(lp2473
S':'
asbag100
(g121
g102
NtRp2474
(dp2475
g105
(dp2476
sg114
g2461
sg107
(lp2477
g100
(g101
g102
NtRp2478
(dp2479
g105
(dp2480
g113
I5
ssg114
g2474
sg107
(lp2481
S'datetime.datetime(2012, 11, 27, 12, 20, 39, 893000)'
p2482
asbasbasbag100
(g116
g102
NtRp2483
(dp2484
g105
(dp2485
sg114
g110
sg107
(lp2486
g100
(g121
g102
NtRp2487
(dp2488
g105
(dp2489
g125
g126
ssg114
g2483
sg107
(lp2490
S'post_vars'
p2491
asbag100
(g121
g102
NtRp2492
(dp2493
g105
(dp2494
g132
g133
ssg114
g2483
sg107
(lp2495
S':'
asbag100
(g121
g102
NtRp2496
(dp2497
g105
(dp2498
sg114
g2483
sg107
(lp2499
g100
(g101
g102
NtRp2500
(dp2501
g105
(dp2502
g113
I5
ssg114
g2496
sg107
(lp2503
g100
(g109
g102
NtRp2504
(dp2505
g105
(dp2506
g113
I4
ssg114
Nsg107
(lp2507
sbasbasbasbag100
(g116
g102
NtRp2508
(dp2509
g105
(dp2510
sg114
g110
sg107
(lp2511
g100
(g121
g102
NtRp2512
(dp2513
g105
(dp2514
g125
g126
ssg114
g2508
sg107
(lp2515
S'raw_args'
p2516
asbag100
(g121
g102
NtRp2517
(dp2518
g105
(dp2519
g132
g133
ssg114
g2508
sg107
(lp2520
S':'
asbag100
(g121
g102
NtRp2521
(dp2522
g105
(dp2523
sg114
g2508
sg107
(lp2524
g100
(g101
g102
NtRp2525
(dp2526
g105
(dp2527
g113
I5
ssg114
g2521
sg107
(lp2528
S''
asbasbasbag100
(g116
g102
NtRp2529
(dp2530
g105
(dp2531
sg114
g110
sg107
(lp2532
g100
(g121
g102
NtRp2533
(dp2534
g105
(dp2535
g125
g126
ssg114
g2529
sg107
(lp2536
S'raw_extension'
p2537
asbag100
(g121
g102
NtRp2538
(dp2539
g105
(dp2540
g132
g133
ssg114
g2529
sg107
(lp2541
S':'
asbag100
(g121
g102
NtRp2542
(dp2543
g105
(dp2544
sg114
g2529
sg107
(lp2545
g100
(g101
g102
NtRp2546
(dp2547
g105
(dp2548
g113
I5
ssg114
g2542
sg107
(lp2549
S'None'
p2550
asbasbasbag100
(g116
g102
NtRp2551
(dp2552
g105
(dp2553
sg114
g110
sg107
(lp2554
g100
(g121
g102
NtRp2555
(dp2556
g105
(dp2557
g125
g126
ssg114
g2551
sg107
(lp2558
g85
asbag100
(g121
g102
NtRp2559
(dp2560
g105
(dp2561
g132
g133
ssg114
g2551
sg107
(lp2562
S':'
asbag100
(g121
g102
NtRp2563
(dp2564
g105
(dp2565
sg114
g2551
sg107
(lp2566
g100
(g101
g102
NtRp2567
(dp2568
g105
(dp2569
g113
I5
ssg114
g2563
sg107
(lp2570
g1401
asbasbasbag100
(g116
g102
NtRp2571
(dp2572
g105
(dp2573
sg114
g110
sg107
(lp2574
g100
(g121
g102
NtRp2575
(dp2576
g105
(dp2577
g125
g126
ssg114
g2571
sg107
(lp2578
S'utcnow'
p2579
asbag100
(g121
g102
NtRp2580
(dp2581
g105
(dp2582
g132
g133
ssg114
g2571
sg107
(lp2583
S':'
asbag100
(g121
g102
NtRp2584
(dp2585
g105
(dp2586
sg114
g2571
sg107
(lp2587
g100
(g101
g102
NtRp2588
(dp2589
g105
(dp2590
g113
I5
ssg114
g2584
sg107
(lp2591
S'datetime.datetime(2012, 11, 27, 20, 20, 39, 893000)'
p2592
asbasbasbag100
(g116
g102
NtRp2593
(dp2594
g105
(dp2595
sg114
g110
sg107
(lp2596
g100
(g121
g102
NtRp2597
(dp2598
g105
(dp2599
g125
g126
ssg114
g2593
sg107
(lp2600
S'uuid'
p2601
asbag100
(g121
g102
NtRp2602
(dp2603
g105
(dp2604
g132
g133
ssg114
g2593
sg107
(lp2605
S':'
asbag100
(g121
g102
NtRp2606
(dp2607
g105
(dp2608
sg114
g2593
sg107
(lp2609
g100
(g101
g102
NtRp2610
(dp2611
g105
(dp2612
g113
I5
ssg114
g2606
sg107
(lp2613
S'diet_exercise_log/127.0.0.1.2012-11-27.12-20-39.3ca00083-e060-4da6-8c85-dc72bea5754b'
p2614
asbasbasbag100
(g116
g102
NtRp2615
(dp2616
g105
(dp2617
sg114
g110
sg107
(lp2618
g100
(g121
g102
NtRp2619
(dp2620
g105
(dp2621
g125
g126
ssg114
g2615
sg107
(lp2622
S'vars'
p2623
asbag100
(g121
g102
NtRp2624
(dp2625
g105
(dp2626
g132
g133
ssg114
g2615
sg107
(lp2627
S':'
asbag100
(g121
g102
NtRp2628
(dp2629
g105
(dp2630
sg114
g2615
sg107
(lp2631
g100
(g101
g102
NtRp2632
(dp2633
g105
(dp2634
g113
I5
ssg114
g2628
sg107
(lp2635
g100
(g109
g102
NtRp2636
(dp2637
g105
(dp2638
g113
I4
ssg114
Nsg107
(lp2639
sbasbasbasbag100
(g116
g102
NtRp2640
(dp2641
g105
(dp2642
sg114
g110
sg107
(lp2643
g100
(g121
g102
NtRp2644
(dp2645
g105
(dp2646
g125
g126
ssg114
g2640
sg107
(lp2647
S'wsgi'
p2648
asbag100
(g121
g102
NtRp2649
(dp2650
g105
(dp2651
g132
g133
ssg114
g2640
sg107
(lp2652
S':'
asbag100
(g121
g102
NtRp2653
(dp2654
g105
(dp2655
sg114
g2640
sg107
(lp2656
g100
(g101
g102
NtRp2657
(dp2658
g105
(dp2659
g113
I5
ssg114
g2653
sg107
(lp2660
g100
(g109
g102
NtRp2661
(dp2662
g105
(dp2663
g113
I4
ssg114
Nsg107
(lp2664
g100
(g116
g102
NtRp2665
(dp2666
g105
(dp2667
sg114
g2661
sg107
(lp2668
g100
(g121
g102
NtRp2669
(dp2670
g105
(dp2671
g125
g126
ssg114
g2665
sg107
(lp2672
S'environ'
p2673
asbag100
(g121
g102
NtRp2674
(dp2675
g105
(dp2676
g132
g133
ssg114
g2665
sg107
(lp2677
S':'
asbag100
(g121
g102
NtRp2678
(dp2679
g105
(dp2680
sg114
g2665
sg107
(lp2681
g100
(g101
g102
NtRp2682
(dp2683
g105
(dp2684
g113
I4
ssg114
g2678
sg107
(lp2685
g100
(g109
g102
NtRp2686
(dp2687
g105
(dp2688
g113
I3
ssg114
Nsg107
(lp2689
g100
(g116
g102
NtRp2690
(dp2691
g105
(dp2692
sg114
g2686
sg107
(lp2693
g100
(g121
g102
NtRp2694
(dp2695
g105
(dp2696
g125
g126
ssg114
g2690
sg107
(lp2697
S'HTTP_ACCEPT'
p2698
asbag100
(g121
g102
NtRp2699
(dp2700
g105
(dp2701
g132
g133
ssg114
g2690
sg107
(lp2702
S':'
asbag100
(g121
g102
NtRp2703
(dp2704
g105
(dp2705
sg114
g2690
sg107
(lp2706
g100
(g101
g102
NtRp2707
(dp2708
g105
(dp2709
g113
I3
ssg114
g2703
sg107
(lp2710
g1071
asbasbasbag100
(g116
g102
NtRp2711
(dp2712
g105
(dp2713
sg114
g2686
sg107
(lp2714
g100
(g121
g102
NtRp2715
(dp2716
g105
(dp2717
g125
g126
ssg114
g2711
sg107
(lp2718
S'HTTP_ACCEPT_ENCODING'
p2719
asbag100
(g121
g102
NtRp2720
(dp2721
g105
(dp2722
g132
g133
ssg114
g2711
sg107
(lp2723
S':'
asbag100
(g121
g102
NtRp2724
(dp2725
g105
(dp2726
sg114
g2711
sg107
(lp2727
g100
(g101
g102
NtRp2728
(dp2729
g105
(dp2730
g113
I3
ssg114
g2724
sg107
(lp2731
g1093
asbasbasbag100
(g116
g102
NtRp2732
(dp2733
g105
(dp2734
sg114
g2686
sg107
(lp2735
g100
(g121
g102
NtRp2736
(dp2737
g105
(dp2738
g125
g126
ssg114
g2732
sg107
(lp2739
S'HTTP_ACCEPT_LANGUAGE'
p2740
asbag100
(g121
g102
NtRp2741
(dp2742
g105
(dp2743
g132
g133
ssg114
g2732
sg107
(lp2744
S':'
asbag100
(g121
g102
NtRp2745
(dp2746
g105
(dp2747
sg114
g2732
sg107
(lp2748
g100
(g101
g102
NtRp2749
(dp2750
g105
(dp2751
g113
I3
ssg114
g2745
sg107
(lp2752
g1115
asbasbasbag100
(g116
g102
NtRp2753
(dp2754
g105
(dp2755
sg114
g2686
sg107
(lp2756
g100
(g121
g102
NtRp2757
(dp2758
g105
(dp2759
g125
g126
ssg114
g2753
sg107
(lp2760
S'HTTP_CACHE_CONTROL'
p2761
asbag100
(g121
g102
NtRp2762
(dp2763
g105
(dp2764
g132
g133
ssg114
g2753
sg107
(lp2765
S':'
asbag100
(g121
g102
NtRp2766
(dp2767
g105
(dp2768
sg114
g2753
sg107
(lp2769
g100
(g101
g102
NtRp2770
(dp2771
g105
(dp2772
g113
I3
ssg114
g2766
sg107
(lp2773
g1137
asbasbasbag100
(g116
g102
NtRp2774
(dp2775
g105
(dp2776
sg114
g2686
sg107
(lp2777
g100
(g121
g102
NtRp2778
(dp2779
g105
(dp2780
g125
g126
ssg114
g2774
sg107
(lp2781
S'HTTP_CONNECTION'
p2782
asbag100
(g121
g102
NtRp2783
(dp2784
g105
(dp2785
g132
g133
ssg114
g2774
sg107
(lp2786
S':'
asbag100
(g121
g102
NtRp2787
(dp2788
g105
(dp2789
sg114
g2774
sg107
(lp2790
g100
(g101
g102
NtRp2791
(dp2792
g105
(dp2793
g113
I3
ssg114
g2787
sg107
(lp2794
g1159
asbasbasbag100
(g116
g102
NtRp2795
(dp2796
g105
(dp2797
sg114
g2686
sg107
(lp2798
g100
(g121
g102
NtRp2799
(dp2800
g105
(dp2801
g125
g126
ssg114
g2795
sg107
(lp2802
S'HTTP_COOKIE'
p2803
asbag100
(g121
g102
NtRp2804
(dp2805
g105
(dp2806
g132
g133
ssg114
g2795
sg107
(lp2807
S':'
asbag100
(g121
g102
NtRp2808
(dp2809
g105
(dp2810
sg114
g2795
sg107
(lp2811
g100
(g101
g102
NtRp2812
(dp2813
g105
(dp2814
g113
I3
ssg114
g2808
sg107
(lp2815
g1181
asbasbasbag100
(g116
g102
NtRp2816
(dp2817
g105
(dp2818
sg114
g2686
sg107
(lp2819
g100
(g121
g102
NtRp2820
(dp2821
g105
(dp2822
g125
g126
ssg114
g2816
sg107
(lp2823
S'HTTP_HOST'
p2824
asbag100
(g121
g102
NtRp2825
(dp2826
g105
(dp2827
g132
g133
ssg114
g2816
sg107
(lp2828
S':'
asbag100
(g121
g102
NtRp2829
(dp2830
g105
(dp2831
sg114
g2816
sg107
(lp2832
g100
(g101
g102
NtRp2833
(dp2834
g105
(dp2835
g113
I3
ssg114
g2829
sg107
(lp2836
g1203
asbasbasbag100
(g116
g102
NtRp2837
(dp2838
g105
(dp2839
sg114
g2686
sg107
(lp2840
g100
(g121
g102
NtRp2841
(dp2842
g105
(dp2843
g125
g126
ssg114
g2837
sg107
(lp2844
S'HTTP_REFERER'
p2845
asbag100
(g121
g102
NtRp2846
(dp2847
g105
(dp2848
g132
g133
ssg114
g2837
sg107
(lp2849
S':'
asbag100
(g121
g102
NtRp2850
(dp2851
g105
(dp2852
sg114
g2837
sg107
(lp2853
g100
(g101
g102
NtRp2854
(dp2855
g105
(dp2856
g113
I3
ssg114
g2850
sg107
(lp2857
g1225
asbasbasbag100
(g116
g102
NtRp2858
(dp2859
g105
(dp2860
sg114
g2686
sg107
(lp2861
g100
(g121
g102
NtRp2862
(dp2863
g105
(dp2864
g125
g126
ssg114
g2858
sg107
(lp2865
S'HTTP_USER_AGENT'
p2866
asbag100
(g121
g102
NtRp2867
(dp2868
g105
(dp2869
g132
g133
ssg114
g2858
sg107
(lp2870
S':'
asbag100
(g121
g102
NtRp2871
(dp2872
g105
(dp2873
sg114
g2858
sg107
(lp2874
g100
(g101
g102
NtRp2875
(dp2876
g105
(dp2877
g113
I3
ssg114
g2871
sg107
(lp2878
g1247
asbasbasbag100
(g116
g102
NtRp2879
(dp2880
g105
(dp2881
sg114
g2686
sg107
(lp2882
g100
(g121
g102
NtRp2883
(dp2884
g105
(dp2885
g125
g126
ssg114
g2879
sg107
(lp2886
S'PATH_INFO'
p2887
asbag100
(g121
g102
NtRp2888
(dp2889
g105
(dp2890
g132
g133
ssg114
g2879
sg107
(lp2891
S':'
asbag100
(g121
g102
NtRp2892
(dp2893
g105
(dp2894
sg114
g2879
sg107
(lp2895
g100
(g101
g102
NtRp2896
(dp2897
g105
(dp2898
g113
I3
ssg114
g2892
sg107
(lp2899
g1401
asbasbasbag100
(g116
g102
NtRp2900
(dp2901
g105
(dp2902
sg114
g2686
sg107
(lp2903
g100
(g121
g102
NtRp2904
(dp2905
g105
(dp2906
g125
g126
ssg114
g2900
sg107
(lp2907
S'QUERY_STRING'
p2908
asbag100
(g121
g102
NtRp2909
(dp2910
g105
(dp2911
g132
g133
ssg114
g2900
sg107
(lp2912
S':'
asbag100
(g121
g102
NtRp2913
(dp2914
g105
(dp2915
sg114
g2900
sg107
(lp2916
g100
(g101
g102
NtRp2917
(dp2918
g105
(dp2919
g113
I3
ssg114
g2913
sg107
(lp2920
S''
asbasbasbag100
(g116
g102
NtRp2921
(dp2922
g105
(dp2923
sg114
g2686
sg107
(lp2924
g100
(g121
g102
NtRp2925
(dp2926
g105
(dp2927
g125
g126
ssg114
g2921
sg107
(lp2928
S'REMOTE_ADDR'
p2929
asbag100
(g121
g102
NtRp2930
(dp2931
g105
(dp2932
g132
g133
ssg114
g2921
sg107
(lp2933
S':'
asbag100
(g121
g102
NtRp2934
(dp2935
g105
(dp2936
sg114
g2921
sg107
(lp2937
g100
(g101
g102
NtRp2938
(dp2939
g105
(dp2940
g113
I3
ssg114
g2934
sg107
(lp2941
g255
asbasbasbag100
(g116
g102
NtRp2942
(dp2943
g105
(dp2944
sg114
g2686
sg107
(lp2945
g100
(g121
g102
NtRp2946
(dp2947
g105
(dp2948
g125
g126
ssg114
g2942
sg107
(lp2949
S'REMOTE_PORT'
p2950
asbag100
(g121
g102
NtRp2951
(dp2952
g105
(dp2953
g132
g133
ssg114
g2942
sg107
(lp2954
S':'
asbag100
(g121
g102
NtRp2955
(dp2956
g105
(dp2957
sg114
g2942
sg107
(lp2958
g100
(g101
g102
NtRp2959
(dp2960
g105
(dp2961
g113
I3
ssg114
g2955
sg107
(lp2962
g1465
asbasbasbag100
(g116
g102
NtRp2963
(dp2964
g105
(dp2965
sg114
g2686
sg107
(lp2966
g100
(g121
g102
NtRp2967
(dp2968
g105
(dp2969
g125
g126
ssg114
g2963
sg107
(lp2970
S'REQUEST_METHOD'
p2971
asbag100
(g121
g102
NtRp2972
(dp2973
g105
(dp2974
g132
g133
ssg114
g2963
sg107
(lp2975
S':'
asbag100
(g121
g102
NtRp2976
(dp2977
g105
(dp2978
sg114
g2963
sg107
(lp2979
g100
(g101
g102
NtRp2980
(dp2981
g105
(dp2982
g113
I3
ssg114
g2976
sg107
(lp2983
g1487
asbasbasbag100
(g116
g102
NtRp2984
(dp2985
g105
(dp2986
sg114
g2686
sg107
(lp2987
g100
(g121
g102
NtRp2988
(dp2989
g105
(dp2990
g125
g126
ssg114
g2984
sg107
(lp2991
S'REQUEST_URI'
p2992
asbag100
(g121
g102
NtRp2993
(dp2994
g105
(dp2995
g132
g133
ssg114
g2984
sg107
(lp2996
S':'
asbag100
(g121
g102
NtRp2997
(dp2998
g105
(dp2999
sg114
g2984
sg107
(lp3000
g100
(g101
g102
NtRp3001
(dp3002
g105
(dp3003
g113
I3
ssg114
g2997
sg107
(lp3004
g1401
asbasbasbag100
(g116
g102
NtRp3005
(dp3006
g105
(dp3007
sg114
g2686
sg107
(lp3008
g100
(g121
g102
NtRp3009
(dp3010
g105
(dp3011
g125
g126
ssg114
g3005
sg107
(lp3012
S'SCRIPT_NAME'
p3013
asbag100
(g121
g102
NtRp3014
(dp3015
g105
(dp3016
g132
g133
ssg114
g3005
sg107
(lp3017
S':'
asbag100
(g121
g102
NtRp3018
(dp3019
g105
(dp3020
sg114
g3005
sg107
(lp3021
g100
(g101
g102
NtRp3022
(dp3023
g105
(dp3024
g113
I3
ssg114
g3018
sg107
(lp3025
S''
asbasbasbag100
(g116
g102
NtRp3026
(dp3027
g105
(dp3028
sg114
g2686
sg107
(lp3029
g100
(g121
g102
NtRp3030
(dp3031
g105
(dp3032
g125
g126
ssg114
g3026
sg107
(lp3033
S'SERVER_NAME'
p3034
asbag100
(g121
g102
NtRp3035
(dp3036
g105
(dp3037
g132
g133
ssg114
g3026
sg107
(lp3038
S':'
asbag100
(g121
g102
NtRp3039
(dp3040
g105
(dp3041
sg114
g3026
sg107
(lp3042
g100
(g101
g102
NtRp3043
(dp3044
g105
(dp3045
g113
I3
ssg114
g3039
sg107
(lp3046
g1366
asbasbasbag100
(g116
g102
NtRp3047
(dp3048
g105
(dp3049
sg114
g2686
sg107
(lp3050
g100
(g121
g102
NtRp3051
(dp3052
g105
(dp3053
g125
g126
ssg114
g3047
sg107
(lp3054
S'SERVER_PORT'
p3055
asbag100
(g121
g102
NtRp3056
(dp3057
g105
(dp3058
g132
g133
ssg114
g3047
sg107
(lp3059
S':'
asbag100
(g121
g102
NtRp3060
(dp3061
g105
(dp3062
sg114
g3047
sg107
(lp3063
g100
(g101
g102
NtRp3064
(dp3065
g105
(dp3066
g113
I3
ssg114
g3060
sg107
(lp3067
g1572
asbasbasbag100
(g116
g102
NtRp3068
(dp3069
g105
(dp3070
sg114
g2686
sg107
(lp3071
g100
(g121
g102
NtRp3072
(dp3073
g105
(dp3074
g125
g126
ssg114
g3068
sg107
(lp3075
S'SERVER_PROTOCOL'
p3076
asbag100
(g121
g102
NtRp3077
(dp3078
g105
(dp3079
g132
g133
ssg114
g3068
sg107
(lp3080
S':'
asbag100
(g121
g102
NtRp3081
(dp3082
g105
(dp3083
sg114
g3068
sg107
(lp3084
g100
(g101
g102
NtRp3085
(dp3086
g105
(dp3087
g113
I3
ssg114
g3081
sg107
(lp3088
g1594
asbasbasbag100
(g116
g102
NtRp3089
(dp3090
g105
(dp3091
sg114
g2686
sg107
(lp3092
g100
(g121
g102
NtRp3093
(dp3094
g105
(dp3095
g125
g126
ssg114
g3089
sg107
(lp3096
S'SERVER_SOFTWARE'
p3097
asbag100
(g121
g102
NtRp3098
(dp3099
g105
(dp3100
g132
g133
ssg114
g3089
sg107
(lp3101
S':'
asbag100
(g121
g102
NtRp3102
(dp3103
g105
(dp3104
sg114
g3089
sg107
(lp3105
g100
(g101
g102
NtRp3106
(dp3107
g105
(dp3108
g113
I3
ssg114
g3102
sg107
(lp3109
g1616
asbasbasbag100
(g116
g102
NtRp3110
(dp3111
g105
(dp3112
sg114
g2686
sg107
(lp3113
g100
(g121
g102
NtRp3114
(dp3115
g105
(dp3116
g125
g126
ssg114
g3110
sg107
(lp3117
S'wsgi.errors'
p3118
asbag100
(g121
g102
NtRp3119
(dp3120
g105
(dp3121
g132
g133
ssg114
g3110
sg107
(lp3122
S':'
asbag100
(g121
g102
NtRp3123
(dp3124
g105
(dp3125
sg114
g3110
sg107
(lp3126
g100
(g101
g102
NtRp3127
(dp3128
g105
(dp3129
g113
I3
ssg114
g3123
sg107
(lp3130
S"<open file '<stderr>', mode 'w' at 0x004350D0>"
p3131
asbasbasbag100
(g116
g102
NtRp3132
(dp3133
g105
(dp3134
sg114
g2686
sg107
(lp3135
g100
(g121
g102
NtRp3136
(dp3137
g105
(dp3138
g125
g126
ssg114
g3132
sg107
(lp3139
S'wsgi.file_wrapper'
p3140
asbag100
(g121
g102
NtRp3141
(dp3142
g105
(dp3143
g132
g133
ssg114
g3132
sg107
(lp3144
S':'
asbag100
(g121
g102
NtRp3145
(dp3146
g105
(dp3147
sg114
g3132
sg107
(lp3148
g100
(g101
g102
NtRp3149
(dp3150
g105
(dp3151
g113
I3
ssg114
g3145
sg107
(lp3152
S'<class wsgiref.util.FileWrapper at 0x0239E2D0>'
p3153
asbasbasbag100
(g116
g102
NtRp3154
(dp3155
g105
(dp3156
sg114
g2686
sg107
(lp3157
g100
(g121
g102
NtRp3158
(dp3159
g105
(dp3160
g125
g126
ssg114
g3154
sg107
(lp3161
S'wsgi.input'
p3162
asbag100
(g121
g102
NtRp3163
(dp3164
g105
(dp3165
g132
g133
ssg114
g3154
sg107
(lp3166
S':'
asbag100
(g121
g102
NtRp3167
(dp3168
g105
(dp3169
sg114
g3154
sg107
(lp3170
g100
(g101
g102
NtRp3171
(dp3172
g105
(dp3173
g113
I3
ssg114
g3167
sg107
(lp3174
S'<cStringIO.StringO object at 0x027FE500>'
p3175
asbasbasbag100
(g116
g102
NtRp3176
(dp3177
g105
(dp3178
sg114
g2686
sg107
(lp3179
g100
(g121
g102
NtRp3180
(dp3181
g105
(dp3182
g125
g126
ssg114
g3176
sg107
(lp3183
S'wsgi.multiprocess'
p3184
asbag100
(g121
g102
NtRp3185
(dp3186
g105
(dp3187
g132
g133
ssg114
g3176
sg107
(lp3188
S':'
asbag100
(g121
g102
NtRp3189
(dp3190
g105
(dp3191
sg114
g3176
sg107
(lp3192
g100
(g101
g102
NtRp3193
(dp3194
g105
(dp3195
g113
I3
ssg114
g3189
sg107
(lp3196
g143
asbasbasbag100
(g116
g102
NtRp3197
(dp3198
g105
(dp3199
sg114
g2686
sg107
(lp3200
g100
(g121
g102
NtRp3201
(dp3202
g105
(dp3203
g125
g126
ssg114
g3197
sg107
(lp3204
S'wsgi.multithread'
p3205
asbag100
(g121
g102
NtRp3206
(dp3207
g105
(dp3208
g132
g133
ssg114
g3197
sg107
(lp3209
S':'
asbag100
(g121
g102
NtRp3210
(dp3211
g105
(dp3212
sg114
g3197
sg107
(lp3213
g100
(g101
g102
NtRp3214
(dp3215
g105
(dp3216
g113
I3
ssg114
g3210
sg107
(lp3217
g1833
asbasbasbag100
(g116
g102
NtRp3218
(dp3219
g105
(dp3220
sg114
g2686
sg107
(lp3221
g100
(g121
g102
NtRp3222
(dp3223
g105
(dp3224
g125
g126
ssg114
g3218
sg107
(lp3225
S'wsgi.run_once'
p3226
asbag100
(g121
g102
NtRp3227
(dp3228
g105
(dp3229
g132
g133
ssg114
g3218
sg107
(lp3230
S':'
asbag100
(g121
g102
NtRp3231
(dp3232
g105
(dp3233
sg114
g3218
sg107
(lp3234
g100
(g101
g102
NtRp3235
(dp3236
g105
(dp3237
g113
I3
ssg114
g3231
sg107
(lp3238
g143
asbasbasbag100
(g116
g102
NtRp3239
(dp3240
g105
(dp3241
sg114
g2686
sg107
(lp3242
g100
(g121
g102
NtRp3243
(dp3244
g105
(dp3245
g125
g126
ssg114
g3239
sg107
(lp3246
S'wsgi.url_scheme'
p3247
asbag100
(g121
g102
NtRp3248
(dp3249
g105
(dp3250
g132
g133
ssg114
g3239
sg107
(lp3251
S':'
asbag100
(g121
g102
NtRp3252
(dp3253
g105
(dp3254
sg114
g3239
sg107
(lp3255
g100
(g101
g102
NtRp3256
(dp3257
g105
(dp3258
g113
I3
ssg114
g3252
sg107
(lp3259
g1876
asbasbasbag100
(g116
g102
NtRp3260
(dp3261
g105
(dp3262
sg114
g2686
sg107
(lp3263
g100
(g121
g102
NtRp3264
(dp3265
g105
(dp3266
g125
g126
ssg114
g3260
sg107
(lp3267
S'wsgi.version'
p3268
asbag100
(g121
g102
NtRp3269
(dp3270
g105
(dp3271
g132
g133
ssg114
g3260
sg107
(lp3272
S':'
asbag100
(g121
g102
NtRp3273
(dp3274
g105
(dp3275
sg114
g3260
sg107
(lp3276
g100
(g101
g102
NtRp3277
(dp3278
g105
(dp3279
g113
I3
ssg114
g3273
sg107
(lp3280
S'1'
asbasbasbasbasbasbasbasbasbasbasbasbasbsS'frames'
p3281
(lp3282
(dp3283
S'file'
p3284
S'C:\\Users\\matt\\Desktop\\web2py\\gluon\\restricted.py'
p3285
sS'dump'
p3286
(dp3287
sS'lnum'
p3288
I212
sS'lines'
p3289
(dp3290
sS'call'
p3291
S"(code='# -*- coding: utf-8 -*-\\n# this file is released ...\\n\\nresponse._vars=response._caller(add_diet_item)\\n', environment={'A': <class 'gluon.html.A'>, 'Auth': <class 'gluon.tools.Auth'>, 'B': <class 'gluon.html.B'>, 'BEAUTIFY': <class 'gluon.html.BEAUTIFY'>, 'BODY': <class 'gluon.html.BODY'>, 'BR': <class 'gluon.html.BR'>, 'BUTTON': <class 'gluon.html.BUTTON'>, 'CAT': <class 'gluon.html.CAT'>, 'CENTER': <class 'gluon.html.CENTER'>, 'CLEANUP': <class 'gluon.validators.CLEANUP'>, ...}, layer=r'C:\\Users\\matt\\Desktop\\web2py\\applications\\diet_exercise_log\\controllers/default.py')"
p3292
sS'func'
p3293
S'restricted'
p3294
sa(dp3295
g3284
S'C:\\Users\\matt\\Desktop\\web2py\\applications\\diet_exercise_log\\controllers\\default.py'
p3296
sg3286
(dp3297
sg3288
I104
sg3289
(dp3298
I96
S'    http://..../[app]/default/data/search/[table]'
p3299
sI97
S'    but URLs must be signed, i.e. linked with'
p3300
sI98
S"      A('table',_href=URL('data/tables',user_signature=True))"
p3301
sI99
S'    or with the signed load operator'
p3302
sI100
S"      LOAD('default','data.load',args='tables',ajax=True,user_signature=True)"
p3303
sI101
S'    """'
p3304
sI102
S'    return dict(form=crud())'
p3305
sI93
S'    http://..../[app]/default/data/update/[table]/[id]'
p3306
sI94
S'    http://..../[app]/default/data/delete/[table]/[id]'
p3307
sI95
S'    http://..../[app]/default/data/select/[table]'
p3308
ssg3291
S'()'
p3309
sg3293
S'<module>'
p3310
sa(dp3311
g3284
S'C:\\Users\\matt\\Desktop\\web2py\\gluon\\globals.py'
p3312
sg3286
(dp3313
sg3288
I188
sg3289
(dp3314
sg3291
S'(f=<function add_diet_item>)'
p3315
sg3293
S'<lambda>'
p3316
sa(dp3317
g3284
S'C:\\Users\\matt\\Desktop\\web2py\\gluon\\tools.py'
p3318
sg3286
(dp3319
sg3288
I2911
sg3289
(dp3320
sg3291
S'(*a=(), **b={})'
p3321
sg3293
S'f'
sa(dp3322
g3284
S'C:\\Users\\matt\\Desktop\\web2py\\applications\\diet_exercise_log\\controllers\\default.py'
p3323
sg3286
(dp3324
sg3288
I45
sg3289
(dp3325
I40
S'    data = {"items": [ { "id": "urn:uuid:17dbb668-f3f4-4822-8566-f46496887edc",'
p3326
sI41
S'                         "quantity": 0.5, "unit": "urn:uuid:3e8384f0-ea47-4fde-b7e1-a12747b28a30" } ]'
p3327
sI42
S'           }'
p3328
sI43
S"    req = urllib2.Request('http://api.esha.com/analysis?apikey=xck7a6d547sknsh3tuca6vdx')"
p3329
sI44
S"    req.add_header('Content-Type', 'application/json')"
p3330
sI45
S'    f=urllib2.urlopen(req, json.dumps(data))'
p3331
sI46
S'    results = f.read()'
p3332
sI47
S''
sI48
S"    results = json.loads(urllib.urlopen('http://api.esha.com/nutrients?apikey=xck7a6d547sknsh3tuca6vdx').read(), encoding='UTF-8')"
p3333
sI49
S'    nutrients = results'
p3334
ssg3291
S'()'
p3335
sg3293
S'add_diet_item'
p3336
sa(dp3337
g3284
S'C:\\Users\\matt\\Desktop\\web2py\\urllib2.pyc'
p3338
sg3286
(dp3339
sg3288
I126
sg3289
(dp3340
sg3291
S'(url=<urllib2.Request instance>, data=\'{"items": [{"id": "urn:uuid:17dbb668-f3f4-4822-8...-ea47-4fde-b7e1-a12747b28a30", "quantity": 0.5}]}\', timeout=<object object>)'
p3341
sg3293
S'urlopen'
p3342
sa(dp3343
g3284
S'C:\\Users\\matt\\Desktop\\web2py\\urllib2.pyc'
p3344
sg3286
(dp3345
sg3288
I397
sg3289
(dp3346
sg3291
S'(self=<urllib2.OpenerDirector instance>, fullurl=<urllib2.Request instance>, data=\'{"items": [{"id": "urn:uuid:17dbb668-f3f4-4822-8...-ea47-4fde-b7e1-a12747b28a30", "quantity": 0.5}]}\', timeout=<object object>)'
p3347
sg3293
S'open'
p3348
sa(dp3349
g3284
S'C:\\Users\\matt\\Desktop\\web2py\\urllib2.pyc'
p3350
sg3286
(dp3351
sg3288
I510
sg3289
(dp3352
sg3291
S'(self=<urllib2.HTTPErrorProcessor instance>, request=<urllib2.Request instance>, response=<addinfourl at 91960904 whose fp = <socket._fileobject object>>)'
p3353
sg3293
S'http_response'
p3354
sa(dp3355
g3284
S'C:\\Users\\matt\\Desktop\\web2py\\urllib2.pyc'
p3356
sg3286
(dp3357
sg3288
I435
sg3289
(dp3358
sg3291
S"(self=<urllib2.OpenerDirector instance>, proto=504, *args=({301: [<urllib2.HTTPRedirectHandler instance>], 302: [<urllib2.HTTPRedirectHandler instance>], 303: [<urllib2.HTTPRedirectHandler instance>], 307: [<urllib2.HTTPRedirectHandler instance>], 'default': [<urllib2.HTTPDefaultErrorHandler instance>]}, 'default', 'http_error_default', <urllib2.Request instance>, <addinfourl at 91960904 whose fp = <socket._fileobject object>>, 504, 'Gateway Timeout', <httplib.HTTPMessage instance>))"
p3359
sg3293
S'error'
p3360
sa(dp3361
g3284
S'C:\\Users\\matt\\Desktop\\web2py\\urllib2.pyc'
p3362
sg3286
(dp3363
sg3288
I369
sg3289
(dp3364
sg3291
S"(self=<urllib2.OpenerDirector instance>, chain={301: [<urllib2.HTTPRedirectHandler instance>], 302: [<urllib2.HTTPRedirectHandler instance>], 303: [<urllib2.HTTPRedirectHandler instance>], 307: [<urllib2.HTTPRedirectHandler instance>], 'default': [<urllib2.HTTPDefaultErrorHandler instance>]}, kind='default', meth_name='http_error_default', *args=(<urllib2.Request instance>, <addinfourl at 91960904 whose fp = <socket._fileobject object>>, 504, 'Gateway Timeout', <httplib.HTTPMessage instance>))"
p3365
sg3293
S'_call_chain'
p3366
sa(dp3367
g3284
S'C:\\Users\\matt\\Desktop\\web2py\\urllib2.pyc'
p3368
sg3286
(dp3369
sg3288
I518
sg3289
(dp3370
sg3291
S"(self=<urllib2.HTTPDefaultErrorHandler instance>, req=<urllib2.Request instance>, fp=<addinfourl at 91960904 whose fp = <socket._fileobject object>>, code=504, msg='Gateway Timeout', hdrs=<httplib.HTTPMessage instance>)"
p3371
sg3293
S'http_error_default'
p3372
sasS'pyver'
p3373
S'Python 2.7: C:\\Users\\matt\\Desktop\\web2py\\web2py.exe'
p3374
sS'session'
p3375
g100
(g101
g102
NtRp3376
(dp3377
g105
(dp3378
sg107
(lp3379
g100
(g109
g102
NtRp3380
(dp3381
g105
(dp3382
g113
I5
ssg114
Nsg107
(lp3383
g100
(g116
g102
NtRp3384
(dp3385
g105
(dp3386
sg114
g3380
sg107
(lp3387
g100
(g121
g102
NtRp3388
(dp3389
g105
(dp3390
g125
g126
ssg114
g3384
sg107
(lp3391
S'auth'
p3392
asbag100
(g121
g102
NtRp3393
(dp3394
g105
(dp3395
g132
g133
ssg114
g3384
sg107
(lp3396
S':'
asbag100
(g121
g102
NtRp3397
(dp3398
g105
(dp3399
sg114
g3384
sg107
(lp3400
g100
(g101
g102
NtRp3401
(dp3402
g105
(dp3403
g113
I5
ssg114
g3397
sg107
(lp3404
g100
(g109
g102
NtRp3405
(dp3406
g105
(dp3407
g113
I4
ssg114
Nsg107
(lp3408
g100
(g116
g102
NtRp3409
(dp3410
g105
(dp3411
sg114
g3405
sg107
(lp3412
g100
(g121
g102
NtRp3413
(dp3414
g105
(dp3415
g125
g126
ssg114
g3409
sg107
(lp3416
S'expiration'
p3417
asbag100
(g121
g102
NtRp3418
(dp3419
g105
(dp3420
g132
g133
ssg114
g3409
sg107
(lp3421
S':'
asbag100
(g121
g102
NtRp3422
(dp3423
g105
(dp3424
sg114
g3409
sg107
(lp3425
g100
(g101
g102
NtRp3426
(dp3427
g105
(dp3428
g113
I4
ssg114
g3422
sg107
(lp3429
S'3600'
p3430
asbasbasbag100
(g116
g102
NtRp3431
(dp3432
g105
(dp3433
sg114
g3405
sg107
(lp3434
g100
(g121
g102
NtRp3435
(dp3436
g105
(dp3437
g125
g126
ssg114
g3431
sg107
(lp3438
S'hmac_key'
p3439
asbag100
(g121
g102
NtRp3440
(dp3441
g105
(dp3442
g132
g133
ssg114
g3431
sg107
(lp3443
S':'
asbag100
(g121
g102
NtRp3444
(dp3445
g105
(dp3446
sg114
g3431
sg107
(lp3447
g100
(g101
g102
NtRp3448
(dp3449
g105
(dp3450
g113
I4
ssg114
g3444
sg107
(lp3451
S'99e105fe-db74-4bc8-b4b7-c979af2a37e3'
p3452
asbasbasbag100
(g116
g102
NtRp3453
(dp3454
g105
(dp3455
sg114
g3405
sg107
(lp3456
g100
(g121
g102
NtRp3457
(dp3458
g105
(dp3459
g125
g126
ssg114
g3453
sg107
(lp3460
S'last_visit'
p3461
asbag100
(g121
g102
NtRp3462
(dp3463
g105
(dp3464
g132
g133
ssg114
g3453
sg107
(lp3465
S':'
asbag100
(g121
g102
NtRp3466
(dp3467
g105
(dp3468
sg114
g3453
sg107
(lp3469
g100
(g101
g102
NtRp3470
(dp3471
g105
(dp3472
g113
I4
ssg114
g3466
sg107
(lp3473
S'datetime.datetime(2012, 11, 27, 12, 20, 39, 893000)'
p3474
asbasbasbag100
(g116
g102
NtRp3475
(dp3476
g105
(dp3477
sg114
g3405
sg107
(lp3478
g100
(g121
g102
NtRp3479
(dp3480
g105
(dp3481
g125
g126
ssg114
g3475
sg107
(lp3482
S'remember'
p3483
asbag100
(g121
g102
NtRp3484
(dp3485
g105
(dp3486
g132
g133
ssg114
g3475
sg107
(lp3487
S':'
asbag100
(g121
g102
NtRp3488
(dp3489
g105
(dp3490
sg114
g3475
sg107
(lp3491
g100
(g101
g102
NtRp3492
(dp3493
g105
(dp3494
g113
I4
ssg114
g3488
sg107
(lp3495
g143
asbasbasbag100
(g116
g102
NtRp3496
(dp3497
g105
(dp3498
sg114
g3405
sg107
(lp3499
g100
(g121
g102
NtRp3500
(dp3501
g105
(dp3502
g125
g126
ssg114
g3496
sg107
(lp3503
S'user'
p3504
asbag100
(g121
g102
NtRp3505
(dp3506
g105
(dp3507
g132
g133
ssg114
g3496
sg107
(lp3508
S':'
asbag100
(g121
g102
NtRp3509
(dp3510
g105
(dp3511
sg114
g3496
sg107
(lp3512
g100
(g101
g102
NtRp3513
(dp3514
g105
(dp3515
g113
I4
ssg114
g3509
sg107
(lp3516
g100
(g109
g102
NtRp3517
(dp3518
g105
(dp3519
g113
I3
ssg114
Nsg107
(lp3520
g100
(g116
g102
NtRp3521
(dp3522
g105
(dp3523
sg114
g3517
sg107
(lp3524
g100
(g121
g102
NtRp3525
(dp3526
g105
(dp3527
g125
g126
ssg114
g3521
sg107
(lp3528
S'email'
p3529
asbag100
(g121
g102
NtRp3530
(dp3531
g105
(dp3532
g132
g133
ssg114
g3521
sg107
(lp3533
S':'
asbag100
(g121
g102
NtRp3534
(dp3535
g105
(dp3536
sg114
g3521
sg107
(lp3537
g100
(g101
g102
NtRp3538
(dp3539
g105
(dp3540
g113
I3
ssg114
g3534
sg107
(lp3541
S'mmusselm@ucsc.edu'
p3542
asbasbasbag100
(g116
g102
NtRp3543
(dp3544
g105
(dp3545
sg114
g3517
sg107
(lp3546
g100
(g121
g102
NtRp3547
(dp3548
g105
(dp3549
g125
g126
ssg114
g3543
sg107
(lp3550
S'first_name'
p3551
asbag100
(g121
g102
NtRp3552
(dp3553
g105
(dp3554
g132
g133
ssg114
g3543
sg107
(lp3555
S':'
asbag100
(g121
g102
NtRp3556
(dp3557
g105
(dp3558
sg114
g3543
sg107
(lp3559
g100
(g101
g102
NtRp3560
(dp3561
g105
(dp3562
g113
I3
ssg114
g3556
sg107
(lp3563
S'Matt'
p3564
asbasbasbag100
(g116
g102
NtRp3565
(dp3566
g105
(dp3567
sg114
g3517
sg107
(lp3568
g100
(g121
g102
NtRp3569
(dp3570
g105
(dp3571
g125
g126
ssg114
g3565
sg107
(lp3572
S'id'
p3573
asbag100
(g121
g102
NtRp3574
(dp3575
g105
(dp3576
g132
g133
ssg114
g3565
sg107
(lp3577
S':'
asbag100
(g121
g102
NtRp3578
(dp3579
g105
(dp3580
sg114
g3565
sg107
(lp3581
g100
(g101
g102
NtRp3582
(dp3583
g105
(dp3584
g113
I3
ssg114
g3578
sg107
(lp3585
S'1'
asbasbasbag100
(g116
g102
NtRp3586
(dp3587
g105
(dp3588
sg114
g3517
sg107
(lp3589
g100
(g121
g102
NtRp3590
(dp3591
g105
(dp3592
g125
g126
ssg114
g3586
sg107
(lp3593
S'last_name'
p3594
asbag100
(g121
g102
NtRp3595
(dp3596
g105
(dp3597
g132
g133
ssg114
g3586
sg107
(lp3598
S':'
asbag100
(g121
g102
NtRp3599
(dp3600
g105
(dp3601
sg114
g3586
sg107
(lp3602
g100
(g101
g102
NtRp3603
(dp3604
g105
(dp3605
g113
I3
ssg114
g3599
sg107
(lp3606
S'Musselman'
p3607
asbasbasbag100
(g116
g102
NtRp3608
(dp3609
g105
(dp3610
sg114
g3517
sg107
(lp3611
g100
(g121
g102
NtRp3612
(dp3613
g105
(dp3614
g125
g126
ssg114
g3608
sg107
(lp3615
S'registration_id'
p3616
asbag100
(g121
g102
NtRp3617
(dp3618
g105
(dp3619
g132
g133
ssg114
g3608
sg107
(lp3620
S':'
asbag100
(g121
g102
NtRp3621
(dp3622
g105
(dp3623
sg114
g3608
sg107
(lp3624
g100
(g101
g102
NtRp3625
(dp3626
g105
(dp3627
g113
I3
ssg114
g3621
sg107
(lp3628
S''
asbasbasbag100
(g116
g102
NtRp3629
(dp3630
g105
(dp3631
sg114
g3517
sg107
(lp3632
g100
(g121
g102
NtRp3633
(dp3634
g105
(dp3635
g125
g126
ssg114
g3629
sg107
(lp3636
S'registration_key'
p3637
asbag100
(g121
g102
NtRp3638
(dp3639
g105
(dp3640
g132
g133
ssg114
g3629
sg107
(lp3641
S':'
asbag100
(g121
g102
NtRp3642
(dp3643
g105
(dp3644
sg114
g3629
sg107
(lp3645
g100
(g101
g102
NtRp3646
(dp3647
g105
(dp3648
g113
I3
ssg114
g3642
sg107
(lp3649
S''
asbasbasbag100
(g116
g102
NtRp3650
(dp3651
g105
(dp3652
sg114
g3517
sg107
(lp3653
g100
(g121
g102
NtRp3654
(dp3655
g105
(dp3656
g125
g126
ssg114
g3650
sg107
(lp3657
S'reset_password_key'
p3658
asbag100
(g121
g102
NtRp3659
(dp3660
g105
(dp3661
g132
g133
ssg114
g3650
sg107
(lp3662
S':'
asbag100
(g121
g102
NtRp3663
(dp3664
g105
(dp3665
sg114
g3650
sg107
(lp3666
g100
(g101
g102
NtRp3667
(dp3668
g105
(dp3669
g113
I3
ssg114
g3663
sg107
(lp3670
S''
asbasbasbasbasbasbasbag100
(g116
g102
NtRp3671
(dp3672
g105
(dp3673
sg114
g3405
sg107
(lp3674
g100
(g121
g102
NtRp3675
(dp3676
g105
(dp3677
g125
g126
ssg114
g3671
sg107
(lp3678
S'user_groups'
p3679
asbag100
(g121
g102
NtRp3680
(dp3681
g105
(dp3682
g132
g133
ssg114
g3671
sg107
(lp3683
S':'
asbag100
(g121
g102
NtRp3684
(dp3685
g105
(dp3686
sg114
g3671
sg107
(lp3687
g100
(g101
g102
NtRp3688
(dp3689
g105
(dp3690
g113
I4
ssg114
g3684
sg107
(lp3691
g100
(g109
g102
NtRp3692
(dp3693
g105
(dp3694
g113
I3
ssg114
Nsg107
(lp3695
sbasbasbasbasbasbasbasbag100
(g116
g102
NtRp3696
(dp3697
g105
(dp3698
sg114
g3380
sg107
(lp3699
g100
(g121
g102
NtRp3700
(dp3701
g105
(dp3702
g125
g126
ssg114
g3696
sg107
(lp3703
S'flash'
p3704
asbag100
(g121
g102
NtRp3705
(dp3706
g105
(dp3707
g132
g133
ssg114
g3696
sg107
(lp3708
S':'
asbag100
(g121
g102
NtRp3709
(dp3710
g105
(dp3711
sg114
g3696
sg107
(lp3712
g100
(g101
g102
NtRp3713
(dp3714
g105
(dp3715
g113
I5
ssg114
g3709
sg107
(lp3716
S'None'
p3717
asbasbasbasbasbsS'etype'
p3718
S"<class 'urllib2.HTTPError'>"
p3719
sS'date'
p3720
S'Tue Nov 27 12:20:50 2012'
p3721
sS'response'
p3722
g100
(g101
g102
NtRp3723
(dp3724
g105
(dp3725
sg107
(lp3726
g100
(g109
g102
NtRp3727
(dp3728
g105
(dp3729
g113
I5
ssg114
Nsg107
(lp3730
g100
(g116
g102
NtRp3731
(dp3732
g105
(dp3733
sg114
g3727
sg107
(lp3734
g100
(g121
g102
NtRp3735
(dp3736
g105
(dp3737
g125
g126
ssg114
g3731
sg107
(lp3738
g198
asbag100
(g121
g102
NtRp3739
(dp3740
g105
(dp3741
g132
g133
ssg114
g3731
sg107
(lp3742
S':'
asbag100
(g121
g102
NtRp3743
(dp3744
g105
(dp3745
sg114
g3731
sg107
(lp3746
g100
(g101
g102
NtRp3747
(dp3748
g105
(dp3749
g113
I5
ssg114
g3743
sg107
(lp3750
S'<cStringIO.StringO object at 0x05A517C0>'
p3751
asbasbasbag100
(g116
g102
NtRp3752
(dp3753
g105
(dp3754
sg114
g3727
sg107
(lp3755
g100
(g121
g102
NtRp3756
(dp3757
g105
(dp3758
g125
g126
ssg114
g3752
sg107
(lp3759
g286
asbag100
(g121
g102
NtRp3760
(dp3761
g105
(dp3762
g132
g133
ssg114
g3752
sg107
(lp3763
S':'
asbag100
(g121
g102
NtRp3764
(dp3765
g105
(dp3766
sg114
g3752
sg107
(lp3767
g100
(g101
g102
NtRp3768
(dp3769
g105
(dp3770
g113
I5
ssg114
g3764
sg107
(lp3771
g100
(g109
g102
NtRp3772
(dp3773
g105
(dp3774
g113
I4
ssg114
Nsg107
(lp3775
g100
(g116
g102
NtRp3776
(dp3777
g105
(dp3778
sg114
g3772
sg107
(lp3779
g100
(g121
g102
NtRp3780
(dp3781
g105
(dp3782
g125
g126
ssg114
g3776
sg107
(lp3783
S'session_id_diet_exercise_log'
p3784
asbag100
(g121
g102
NtRp3785
(dp3786
g105
(dp3787
g132
g133
ssg114
g3776
sg107
(lp3788
S':'
asbag100
(g121
g102
NtRp3789
(dp3790
g105
(dp3791
sg114
g3776
sg107
(lp3792
g100
(g101
g102
NtRp3793
(dp3794
g105
(dp3795
g113
I4
ssg114
g3789
sg107
(lp3796
g518
ag100
(g109
g102
NtRp3797
(dp3798
g105
(dp3799
g113
I3
ssg114
Nsg107
(lp3800
g100
(g116
g102
NtRp3801
(dp3802
g105
(dp3803
sg114
g3797
sg107
(lp3804
g100
(g121
g102
NtRp3805
(dp3806
g105
(dp3807
g125
g126
ssg114
g3801
sg107
(lp3808
g337
asbag100
(g121
g102
NtRp3809
(dp3810
g105
(dp3811
g132
g133
ssg114
g3801
sg107
(lp3812
S':'
asbag100
(g121
g102
NtRp3813
(dp3814
g105
(dp3815
sg114
g3801
sg107
(lp3816
g100
(g101
g102
NtRp3817
(dp3818
g105
(dp3819
g113
I3
ssg114
g3813
sg107
(lp3820
S''
asbasbasbag100
(g116
g102
NtRp3821
(dp3822
g105
(dp3823
sg114
g3797
sg107
(lp3824
g100
(g121
g102
NtRp3825
(dp3826
g105
(dp3827
g125
g126
ssg114
g3821
sg107
(lp3828
g358
asbag100
(g121
g102
NtRp3829
(dp3830
g105
(dp3831
g132
g133
ssg114
g3821
sg107
(lp3832
S':'
asbag100
(g121
g102
NtRp3833
(dp3834
g105
(dp3835
sg114
g3821
sg107
(lp3836
g100
(g101
g102
NtRp3837
(dp3838
g105
(dp3839
g113
I3
ssg114
g3833
sg107
(lp3840
S''
asbasbasbag100
(g116
g102
NtRp3841
(dp3842
g105
(dp3843
sg114
g3797
sg107
(lp3844
g100
(g121
g102
NtRp3845
(dp3846
g105
(dp3847
g125
g126
ssg114
g3841
sg107
(lp3848
g379
asbag100
(g121
g102
NtRp3849
(dp3850
g105
(dp3851
g132
g133
ssg114
g3841
sg107
(lp3852
S':'
asbag100
(g121
g102
NtRp3853
(dp3854
g105
(dp3855
sg114
g3841
sg107
(lp3856
g100
(g101
g102
NtRp3857
(dp3858
g105
(dp3859
g113
I3
ssg114
g3853
sg107
(lp3860
S''
asbasbasbag100
(g116
g102
NtRp3861
(dp3862
g105
(dp3863
sg114
g3797
sg107
(lp3864
g100
(g121
g102
NtRp3865
(dp3866
g105
(dp3867
g125
g126
ssg114
g3861
sg107
(lp3868
g400
asbag100
(g121
g102
NtRp3869
(dp3870
g105
(dp3871
g132
g133
ssg114
g3861
sg107
(lp3872
S':'
asbag100
(g121
g102
NtRp3873
(dp3874
g105
(dp3875
sg114
g3861
sg107
(lp3876
g100
(g101
g102
NtRp3877
(dp3878
g105
(dp3879
g113
I3
ssg114
g3873
sg107
(lp3880
S''
asbasbasbag100
(g116
g102
NtRp3881
(dp3882
g105
(dp3883
sg114
g3797
sg107
(lp3884
g100
(g121
g102
NtRp3885
(dp3886
g105
(dp3887
g125
g126
ssg114
g3881
sg107
(lp3888
g421
asbag100
(g121
g102
NtRp3889
(dp3890
g105
(dp3891
g132
g133
ssg114
g3881
sg107
(lp3892
S':'
asbag100
(g121
g102
NtRp3893
(dp3894
g105
(dp3895
sg114
g3881
sg107
(lp3896
g100
(g101
g102
NtRp3897
(dp3898
g105
(dp3899
g113
I3
ssg114
g3893
sg107
(lp3900
S''
asbasbasbag100
(g116
g102
NtRp3901
(dp3902
g105
(dp3903
sg114
g3797
sg107
(lp3904
g100
(g121
g102
NtRp3905
(dp3906
g105
(dp3907
g125
g126
ssg114
g3901
sg107
(lp3908
g442
asbag100
(g121
g102
NtRp3909
(dp3910
g105
(dp3911
g132
g133
ssg114
g3901
sg107
(lp3912
S':'
asbag100
(g121
g102
NtRp3913
(dp3914
g105
(dp3915
sg114
g3901
sg107
(lp3916
g100
(g101
g102
NtRp3917
(dp3918
g105
(dp3919
g113
I3
ssg114
g3913
sg107
(lp3920
S'/'
asbasbasbag100
(g116
g102
NtRp3921
(dp3922
g105
(dp3923
sg114
g3797
sg107
(lp3924
g100
(g121
g102
NtRp3925
(dp3926
g105
(dp3927
g125
g126
ssg114
g3921
sg107
(lp3928
g463
asbag100
(g121
g102
NtRp3929
(dp3930
g105
(dp3931
g132
g133
ssg114
g3921
sg107
(lp3932
S':'
asbag100
(g121
g102
NtRp3933
(dp3934
g105
(dp3935
sg114
g3921
sg107
(lp3936
g100
(g101
g102
NtRp3937
(dp3938
g105
(dp3939
g113
I3
ssg114
g3933
sg107
(lp3940
S''
asbasbasbag100
(g116
g102
NtRp3941
(dp3942
g105
(dp3943
sg114
g3797
sg107
(lp3944
g100
(g121
g102
NtRp3945
(dp3946
g105
(dp3947
g125
g126
ssg114
g3941
sg107
(lp3948
g484
asbag100
(g121
g102
NtRp3949
(dp3950
g105
(dp3951
g132
g133
ssg114
g3941
sg107
(lp3952
S':'
asbag100
(g121
g102
NtRp3953
(dp3954
g105
(dp3955
sg114
g3941
sg107
(lp3956
g100
(g101
g102
NtRp3957
(dp3958
g105
(dp3959
g113
I3
ssg114
g3953
sg107
(lp3960
S''
asbasbasbasbasbasbasbasbasbasbasbag100
(g116
g102
NtRp3961
(dp3962
g105
(dp3963
sg114
g3727
sg107
(lp3964
g100
(g121
g102
NtRp3965
(dp3966
g105
(dp3967
g125
g126
ssg114
g3961
sg107
(lp3968
S'delimiters'
p3969
asbag100
(g121
g102
NtRp3970
(dp3971
g105
(dp3972
g132
g133
ssg114
g3961
sg107
(lp3973
S':'
asbag100
(g121
g102
NtRp3974
(dp3975
g105
(dp3976
sg114
g3961
sg107
(lp3977
g100
(g101
g102
NtRp3978
(dp3979
g105
(dp3980
g113
I5
ssg114
g3974
sg107
(lp3981
g100
(g109
g102
NtRp3982
(dp3983
g105
(dp3984
g113
I4
ssg114
Nsg107
(lp3985
g100
(g116
g102
NtRp3986
(dp3987
g105
(dp3988
sg114
g3982
sg107
(lp3989
g100
(g121
g102
NtRp3990
(dp3991
g105
(dp3992
sg114
g3986
sg107
(lp3993
g100
(g101
g102
NtRp3994
(dp3995
g105
(dp3996
g113
I4
ssg114
g3990
sg107
(lp3997
S'{{'
p3998
asbasbasbag100
(g116
g102
NtRp3999
(dp4000
g105
(dp4001
sg114
g3982
sg107
(lp4002
g100
(g121
g102
NtRp4003
(dp4004
g105
(dp4005
sg114
g3999
sg107
(lp4006
g100
(g101
g102
NtRp4007
(dp4008
g105
(dp4009
g113
I4
ssg114
g4003
sg107
(lp4010
S'}}'
p4011
asbasbasbasbasbasbasbag100
(g116
g102
NtRp4012
(dp4013
g105
(dp4014
sg114
g3727
sg107
(lp4015
g100
(g121
g102
NtRp4016
(dp4017
g105
(dp4018
g125
g126
ssg114
g4012
sg107
(lp4019
S'files'
p4020
asbag100
(g121
g102
NtRp4021
(dp4022
g105
(dp4023
g132
g133
ssg114
g4012
sg107
(lp4024
S':'
asbag100
(g121
g102
NtRp4025
(dp4026
g105
(dp4027
sg114
g4012
sg107
(lp4028
g100
(g101
g102
NtRp4029
(dp4030
g105
(dp4031
g113
I5
ssg114
g4025
sg107
(lp4032
g100
(g109
g102
NtRp4033
(dp4034
g105
(dp4035
g113
I4
ssg114
Nsg107
(lp4036
sbasbasbasbag100
(g116
g102
NtRp4037
(dp4038
g105
(dp4039
sg114
g3727
sg107
(lp4040
g100
(g121
g102
NtRp4041
(dp4042
g105
(dp4043
g125
g126
ssg114
g4037
sg107
(lp4044
S'flash'
p4045
asbag100
(g121
g102
NtRp4046
(dp4047
g105
(dp4048
g132
g133
ssg114
g4037
sg107
(lp4049
S':'
asbag100
(g121
g102
NtRp4050
(dp4051
g105
(dp4052
sg114
g4037
sg107
(lp4053
g100
(g101
g102
NtRp4054
(dp4055
g105
(dp4056
g113
I5
ssg114
g4050
sg107
(lp4057
S'this is add_diet_item()'
p4058
asbasbasbag100
(g116
g102
NtRp4059
(dp4060
g105
(dp4061
sg114
g3727
sg107
(lp4062
g100
(g121
g102
NtRp4063
(dp4064
g105
(dp4065
g125
g126
ssg114
g4059
sg107
(lp4066
S'generic_patterns'
p4067
asbag100
(g121
g102
NtRp4068
(dp4069
g105
(dp4070
g132
g133
ssg114
g4059
sg107
(lp4071
S':'
asbag100
(g121
g102
NtRp4072
(dp4073
g105
(dp4074
sg114
g4059
sg107
(lp4075
g100
(g101
g102
NtRp4076
(dp4077
g105
(dp4078
g113
I5
ssg114
g4072
sg107
(lp4079
g100
(g109
g102
NtRp4080
(dp4081
g105
(dp4082
g113
I4
ssg114
Nsg107
(lp4083
g100
(g116
g102
NtRp4084
(dp4085
g105
(dp4086
sg114
g4080
sg107
(lp4087
g100
(g121
g102
NtRp4088
(dp4089
g105
(dp4090
sg114
g4084
sg107
(lp4091
g100
(g101
g102
NtRp4092
(dp4093
g105
(dp4094
g113
I4
ssg114
g4088
sg107
(lp4095
S'*'
asbasbasbasbasbasbasbag100
(g116
g102
NtRp4096
(dp4097
g105
(dp4098
sg114
g3727
sg107
(lp4099
g100
(g121
g102
NtRp4100
(dp4101
g105
(dp4102
g125
g126
ssg114
g4096
sg107
(lp4103
S'google_analytics_id'
p4104
asbag100
(g121
g102
NtRp4105
(dp4106
g105
(dp4107
g132
g133
ssg114
g4096
sg107
(lp4108
S':'
asbag100
(g121
g102
NtRp4109
(dp4110
g105
(dp4111
sg114
g4096
sg107
(lp4112
g100
(g101
g102
NtRp4113
(dp4114
g105
(dp4115
g113
I5
ssg114
g4109
sg107
(lp4116
S'None'
p4117
asbasbasbag100
(g116
g102
NtRp4118
(dp4119
g105
(dp4120
sg114
g3727
sg107
(lp4121
g100
(g121
g102
NtRp4122
(dp4123
g105
(dp4124
g125
g126
ssg114
g4118
sg107
(lp4125
g39
asbag100
(g121
g102
NtRp4126
(dp4127
g105
(dp4128
g132
g133
ssg114
g4118
sg107
(lp4129
S':'
asbag100
(g121
g102
NtRp4130
(dp4131
g105
(dp4132
sg114
g4118
sg107
(lp4133
g100
(g101
g102
NtRp4134
(dp4135
g105
(dp4136
g113
I5
ssg114
g4130
sg107
(lp4137
g100
(g109
g102
NtRp4138
(dp4139
g105
(dp4140
g113
I4
ssg114
Nsg107
(lp4141
g100
(g116
g102
NtRp4142
(dp4143
g105
(dp4144
sg114
g4138
sg107
(lp4145
g100
(g121
g102
NtRp4146
(dp4147
g105
(dp4148
g125
g126
ssg114
g4142
sg107
(lp4149
S'X-Powered-By'
p4150
asbag100
(g121
g102
NtRp4151
(dp4152
g105
(dp4153
g132
g133
ssg114
g4142
sg107
(lp4154
S':'
asbag100
(g121
g102
NtRp4155
(dp4156
g105
(dp4157
sg114
g4142
sg107
(lp4158
g100
(g101
g102
NtRp4159
(dp4160
g105
(dp4161
g113
I4
ssg114
g4155
sg107
(lp4162
S'web2py'
p4163
asbasbasbasbasbasbasbag100
(g116
g102
NtRp4164
(dp4165
g105
(dp4166
sg114
g3727
sg107
(lp4167
g100
(g121
g102
NtRp4168
(dp4169
g105
(dp4170
g125
g126
ssg114
g4164
sg107
(lp4171
S'menu'
p4172
asbag100
(g121
g102
NtRp4173
(dp4174
g105
(dp4175
g132
g133
ssg114
g4164
sg107
(lp4176
S':'
asbag100
(g121
g102
NtRp4177
(dp4178
g105
(dp4179
sg114
g4164
sg107
(lp4180
g100
(g101
g102
NtRp4181
(dp4182
g105
(dp4183
g113
I5
ssg114
g4177
sg107
(lp4184
g100
(g109
g102
NtRp4185
(dp4186
g105
(dp4187
g113
I4
ssg114
Nsg107
(lp4188
g100
(g116
g102
NtRp4189
(dp4190
g105
(dp4191
sg114
g4185
sg107
(lp4192
g100
(g121
g102
NtRp4193
(dp4194
g105
(dp4195
sg114
g4189
sg107
(lp4196
g100
(g101
g102
NtRp4197
(dp4198
g105
(dp4199
g113
I4
ssg114
g4193
sg107
(lp4200
g100
(g109
g102
NtRp4201
(dp4202
g105
(dp4203
g113
I3
ssg114
Nsg107
(lp4204
g100
(g116
g102
NtRp4205
(dp4206
g105
(dp4207
sg114
g4201
sg107
(lp4208
g100
(g121
g102
NtRp4209
(dp4210
g105
(dp4211
sg114
g4205
sg107
(lp4212
g100
(g101
g102
NtRp4213
(dp4214
g105
(dp4215
g113
I3
ssg114
g4209
sg107
(lp4216
S'Home'
p4217
asbasbasbag100
(g116
g102
NtRp4218
(dp4219
g105
(dp4220
sg114
g4201
sg107
(lp4221
g100
(g121
g102
NtRp4222
(dp4223
g105
(dp4224
sg114
g4218
sg107
(lp4225
g100
(g101
g102
NtRp4226
(dp4227
g105
(dp4228
g113
I3
ssg114
g4222
sg107
(lp4229
g1833
asbasbasbag100
(g116
g102
NtRp4230
(dp4231
g105
(dp4232
sg114
g4201
sg107
(lp4233
g100
(g121
g102
NtRp4234
(dp4235
g105
(dp4236
sg114
g4230
sg107
(lp4237
g100
(g101
g102
NtRp4238
(dp4239
g105
(dp4240
g113
I3
ssg114
g4234
sg107
(lp4241
S'/diet_exercise_log/default/index'
p4242
asbasbasbasbasbasbasbag100
(g116
g102
NtRp4243
(dp4244
g105
(dp4245
sg114
g4185
sg107
(lp4246
g100
(g121
g102
NtRp4247
(dp4248
g105
(dp4249
sg114
g4243
sg107
(lp4250
g100
(g101
g102
NtRp4251
(dp4252
g105
(dp4253
g113
I4
ssg114
g4247
sg107
(lp4254
g100
(g109
g102
NtRp4255
(dp4256
g105
(dp4257
g113
I3
ssg114
Nsg107
(lp4258
g100
(g116
g102
NtRp4259
(dp4260
g105
(dp4261
sg114
g4255
sg107
(lp4262
g100
(g121
g102
NtRp4263
(dp4264
g105
(dp4265
sg114
g4259
sg107
(lp4266
g100
(g101
g102
NtRp4267
(dp4268
g105
(dp4269
g113
I3
ssg114
g4263
sg107
(lp4270
S'Menu'
p4271
asbasbasbag100
(g116
g102
NtRp4272
(dp4273
g105
(dp4274
sg114
g4255
sg107
(lp4275
g100
(g121
g102
NtRp4276
(dp4277
g105
(dp4278
sg114
g4272
sg107
(lp4279
g100
(g101
g102
NtRp4280
(dp4281
g105
(dp4282
g113
I3
ssg114
g4276
sg107
(lp4283
g143
asbasbasbag100
(g116
g102
NtRp4284
(dp4285
g105
(dp4286
sg114
g4255
sg107
(lp4287
g100
(g121
g102
NtRp4288
(dp4289
g105
(dp4290
sg114
g4284
sg107
(lp4291
g100
(g101
g102
NtRp4292
(dp4293
g105
(dp4294
g113
I3
ssg114
g4288
sg107
(lp4295
S'/diet_exercise_log/default/menu'
p4296
asbasbasbasbasbasbasbag100
(g116
g102
NtRp4297
(dp4298
g105
(dp4299
sg114
g4185
sg107
(lp4300
g100
(g121
g102
NtRp4301
(dp4302
g105
(dp4303
sg114
g4297
sg107
(lp4304
g100
(g101
g102
NtRp4305
(dp4306
g105
(dp4307
g113
I4
ssg114
g4301
sg107
(lp4308
g100
(g109
g102
NtRp4309
(dp4310
g105
(dp4311
g113
I3
ssg114
Nsg107
(lp4312
g100
(g116
g102
NtRp4313
(dp4314
g105
(dp4315
sg114
g4309
sg107
(lp4316
g100
(g121
g102
NtRp4317
(dp4318
g105
(dp4319
sg114
g4313
sg107
(lp4320
g100
(g101
g102
NtRp4321
(dp4322
g105
(dp4323
g113
I3
ssg114
g4317
sg107
(lp4324
S'View Logs'
p4325
asbasbasbag100
(g116
g102
NtRp4326
(dp4327
g105
(dp4328
sg114
g4309
sg107
(lp4329
g100
(g121
g102
NtRp4330
(dp4331
g105
(dp4332
sg114
g4326
sg107
(lp4333
g100
(g101
g102
NtRp4334
(dp4335
g105
(dp4336
g113
I3
ssg114
g4330
sg107
(lp4337
g143
asbasbasbag100
(g116
g102
NtRp4338
(dp4339
g105
(dp4340
sg114
g4309
sg107
(lp4341
g100
(g121
g102
NtRp4342
(dp4343
g105
(dp4344
sg114
g4338
sg107
(lp4345
g100
(g101
g102
NtRp4346
(dp4347
g105
(dp4348
g113
I3
ssg114
g4342
sg107
(lp4349
S'/diet_exercise_log/default/view_logs'
p4350
asbasbasbasbasbasbasbag100
(g116
g102
NtRp4351
(dp4352
g105
(dp4353
sg114
g4185
sg107
(lp4354
g100
(g121
g102
NtRp4355
(dp4356
g105
(dp4357
sg114
g4351
sg107
(lp4358
g100
(g101
g102
NtRp4359
(dp4360
g105
(dp4361
g113
I4
ssg114
g4355
sg107
(lp4362
g100
(g109
g102
NtRp4363
(dp4364
g105
(dp4365
g113
I3
ssg114
Nsg107
(lp4366
g100
(g116
g102
NtRp4367
(dp4368
g105
(dp4369
sg114
g4363
sg107
(lp4370
g100
(g121
g102
NtRp4371
(dp4372
g105
(dp4373
sg114
g4367
sg107
(lp4374
g100
(g101
g102
NtRp4375
(dp4376
g105
(dp4377
g113
I3
ssg114
g4371
sg107
(lp4378
S'Settings'
p4379
asbasbasbag100
(g116
g102
NtRp4380
(dp4381
g105
(dp4382
sg114
g4363
sg107
(lp4383
g100
(g121
g102
NtRp4384
(dp4385
g105
(dp4386
sg114
g4380
sg107
(lp4387
g100
(g101
g102
NtRp4388
(dp4389
g105
(dp4390
g113
I3
ssg114
g4384
sg107
(lp4391
g143
asbasbasbag100
(g116
g102
NtRp4392
(dp4393
g105
(dp4394
sg114
g4363
sg107
(lp4395
g100
(g121
g102
NtRp4396
(dp4397
g105
(dp4398
sg114
g4392
sg107
(lp4399
g100
(g101
g102
NtRp4400
(dp4401
g105
(dp4402
g113
I3
ssg114
g4396
sg107
(lp4403
S'/diet_exercise_log/default/settings'
p4404
asbasbasbasbasbasbasbasbasbasbasbag100
(g116
g102
NtRp4405
(dp4406
g105
(dp4407
sg114
g3727
sg107
(lp4408
g100
(g121
g102
NtRp4409
(dp4410
g105
(dp4411
g125
g126
ssg114
g4405
sg107
(lp4412
S'meta'
p4413
asbag100
(g121
g102
NtRp4414
(dp4415
g105
(dp4416
g132
g133
ssg114
g4405
sg107
(lp4417
S':'
asbag100
(g121
g102
NtRp4418
(dp4419
g105
(dp4420
sg114
g4405
sg107
(lp4421
g100
(g101
g102
NtRp4422
(dp4423
g105
(dp4424
g113
I5
ssg114
g4418
sg107
(lp4425
g100
(g109
g102
NtRp4426
(dp4427
g105
(dp4428
g113
I4
ssg114
Nsg107
(lp4429
g100
(g116
g102
NtRp4430
(dp4431
g105
(dp4432
sg114
g4426
sg107
(lp4433
g100
(g121
g102
NtRp4434
(dp4435
g105
(dp4436
g125
g126
ssg114
g4430
sg107
(lp4437
S'author'
p4438
asbag100
(g121
g102
NtRp4439
(dp4440
g105
(dp4441
g132
g133
ssg114
g4430
sg107
(lp4442
S':'
asbag100
(g121
g102
NtRp4443
(dp4444
g105
(dp4445
sg114
g4430
sg107
(lp4446
g100
(g101
g102
NtRp4447
(dp4448
g105
(dp4449
g113
I4
ssg114
g4443
sg107
(lp4450
S'Matt Musselman <matt@slugly.com>'
p4451
asbasbasbag100
(g116
g102
NtRp4452
(dp4453
g105
(dp4454
sg114
g4426
sg107
(lp4455
g100
(g121
g102
NtRp4456
(dp4457
g105
(dp4458
g125
g126
ssg114
g4452
sg107
(lp4459
S'copyright'
p4460
asbag100
(g121
g102
NtRp4461
(dp4462
g105
(dp4463
g132
g133
ssg114
g4452
sg107
(lp4464
S':'
asbag100
(g121
g102
NtRp4465
(dp4466
g105
(dp4467
sg114
g4452
sg107
(lp4468
g100
(g101
g102
NtRp4469
(dp4470
g105
(dp4471
g113
I4
ssg114
g4465
sg107
(lp4472
S'Copyright 2012'
p4473
asbasbasbag100
(g116
g102
NtRp4474
(dp4475
g105
(dp4476
sg114
g4426
sg107
(lp4477
g100
(g121
g102
NtRp4478
(dp4479
g105
(dp4480
g125
g126
ssg114
g4474
sg107
(lp4481
S'description'
p4482
asbag100
(g121
g102
NtRp4483
(dp4484
g105
(dp4485
g132
g133
ssg114
g4474
sg107
(lp4486
S':'
asbag100
(g121
g102
NtRp4487
(dp4488
g105
(dp4489
sg114
g4474
sg107
(lp4490
g100
(g101
g102
NtRp4491
(dp4492
g105
(dp4493
g113
I4
ssg114
g4487
sg107
(lp4494
S'A diet/exercise log'
p4495
asbasbasbag100
(g116
g102
NtRp4496
(dp4497
g105
(dp4498
sg114
g4426
sg107
(lp4499
g100
(g121
g102
NtRp4500
(dp4501
g105
(dp4502
g125
g126
ssg114
g4496
sg107
(lp4503
S'generator'
p4504
asbag100
(g121
g102
NtRp4505
(dp4506
g105
(dp4507
g132
g133
ssg114
g4496
sg107
(lp4508
S':'
asbag100
(g121
g102
NtRp4509
(dp4510
g105
(dp4511
sg114
g4496
sg107
(lp4512
g100
(g101
g102
NtRp4513
(dp4514
g105
(dp4515
g113
I4
ssg114
g4509
sg107
(lp4516
S'Web2py Web Framework'
p4517
asbasbasbag100
(g116
g102
NtRp4518
(dp4519
g105
(dp4520
sg114
g4426
sg107
(lp4521
g100
(g121
g102
NtRp4522
(dp4523
g105
(dp4524
g125
g126
ssg114
g4518
sg107
(lp4525
S'keywords'
p4526
asbag100
(g121
g102
NtRp4527
(dp4528
g105
(dp4529
g132
g133
ssg114
g4518
sg107
(lp4530
S':'
asbag100
(g121
g102
NtRp4531
(dp4532
g105
(dp4533
sg114
g4518
sg107
(lp4534
g100
(g101
g102
NtRp4535
(dp4536
g105
(dp4537
g113
I4
ssg114
g4531
sg107
(lp4538
S'diet, exercise, log'
p4539
asbasbasbasbasbasbasbag100
(g116
g102
NtRp4540
(dp4541
g105
(dp4542
sg114
g3727
sg107
(lp4543
g100
(g121
g102
NtRp4544
(dp4545
g105
(dp4546
g125
g126
ssg114
g4540
sg107
(lp4547
S'models_to_run'
p4548
asbag100
(g121
g102
NtRp4549
(dp4550
g105
(dp4551
g132
g133
ssg114
g4540
sg107
(lp4552
S':'
asbag100
(g121
g102
NtRp4553
(dp4554
g105
(dp4555
sg114
g4540
sg107
(lp4556
g100
(g101
g102
NtRp4557
(dp4558
g105
(dp4559
g113
I5
ssg114
g4553
sg107
(lp4560
g100
(g109
g102
NtRp4561
(dp4562
g105
(dp4563
g113
I4
ssg114
Nsg107
(lp4564
g100
(g116
g102
NtRp4565
(dp4566
g105
(dp4567
sg114
g4561
sg107
(lp4568
g100
(g121
g102
NtRp4569
(dp4570
g105
(dp4571
sg114
g4565
sg107
(lp4572
g100
(g101
g102
NtRp4573
(dp4574
g105
(dp4575
g113
I4
ssg114
g4569
sg107
(lp4576
S'^\\w+\\.py$'
p4577
asbasbasbag100
(g116
g102
NtRp4578
(dp4579
g105
(dp4580
sg114
g4561
sg107
(lp4581
g100
(g121
g102
NtRp4582
(dp4583
g105
(dp4584
sg114
g4578
sg107
(lp4585
g100
(g101
g102
NtRp4586
(dp4587
g105
(dp4588
g113
I4
ssg114
g4582
sg107
(lp4589
S'^default/\\w+\\.py$'
p4590
asbasbasbag100
(g116
g102
NtRp4591
(dp4592
g105
(dp4593
sg114
g4561
sg107
(lp4594
g100
(g121
g102
NtRp4595
(dp4596
g105
(dp4597
sg114
g4591
sg107
(lp4598
g100
(g101
g102
NtRp4599
(dp4600
g105
(dp4601
g113
I4
ssg114
g4595
sg107
(lp4602
S'^default/add_diet_item/\\w+\\.py$'
p4603
asbasbasbasbasbasbasbag100
(g116
g102
NtRp4604
(dp4605
g105
(dp4606
sg114
g3727
sg107
(lp4607
g100
(g121
g102
NtRp4608
(dp4609
g105
(dp4610
g125
g126
ssg114
g4604
sg107
(lp4611
S'postprocessing'
p4612
asbag100
(g121
g102
NtRp4613
(dp4614
g105
(dp4615
g132
g133
ssg114
g4604
sg107
(lp4616
S':'
asbag100
(g121
g102
NtRp4617
(dp4618
g105
(dp4619
sg114
g4604
sg107
(lp4620
g100
(g101
g102
NtRp4621
(dp4622
g105
(dp4623
g113
I5
ssg114
g4617
sg107
(lp4624
g100
(g109
g102
NtRp4625
(dp4626
g105
(dp4627
g113
I4
ssg114
Nsg107
(lp4628
sbasbasbasbag100
(g116
g102
NtRp4629
(dp4630
g105
(dp4631
sg114
g3727
sg107
(lp4632
g100
(g121
g102
NtRp4633
(dp4634
g105
(dp4635
g125
g126
ssg114
g4629
sg107
(lp4636
S'session_cookie_expires'
p4637
asbag100
(g121
g102
NtRp4638
(dp4639
g105
(dp4640
g132
g133
ssg114
g4629
sg107
(lp4641
S':'
asbag100
(g121
g102
NtRp4642
(dp4643
g105
(dp4644
sg114
g4629
sg107
(lp4645
g100
(g101
g102
NtRp4646
(dp4647
g105
(dp4648
g113
I5
ssg114
g4642
sg107
(lp4649
S'None'
p4650
asbasbasbag100
(g116
g102
NtRp4651
(dp4652
g105
(dp4653
sg114
g3727
sg107
(lp4654
g100
(g121
g102
NtRp4655
(dp4656
g105
(dp4657
g125
g126
ssg114
g4651
sg107
(lp4658
S'session_data_name'
p4659
asbag100
(g121
g102
NtRp4660
(dp4661
g105
(dp4662
g132
g133
ssg114
g4651
sg107
(lp4663
S':'
asbag100
(g121
g102
NtRp4664
(dp4665
g105
(dp4666
sg114
g4651
sg107
(lp4667
g100
(g101
g102
NtRp4668
(dp4669
g105
(dp4670
g113
I5
ssg114
g4664
sg107
(lp4671
S'session_data_diet_exercise_log'
p4672
asbasbasbag100
(g116
g102
NtRp4673
(dp4674
g105
(dp4675
sg114
g3727
sg107
(lp4676
g100
(g121
g102
NtRp4677
(dp4678
g105
(dp4679
g125
g126
ssg114
g4673
sg107
(lp4680
S'session_file'
p4681
asbag100
(g121
g102
NtRp4682
(dp4683
g105
(dp4684
g132
g133
ssg114
g4673
sg107
(lp4685
S':'
asbag100
(g121
g102
NtRp4686
(dp4687
g105
(dp4688
sg114
g4673
sg107
(lp4689
g100
(g101
g102
NtRp4690
(dp4691
g105
(dp4692
g113
I5
ssg114
g4686
sg107
(lp4693
S"<open file 'C:\\Users\\matt\\Desktop\\web2py\\applications\\diet_exercise_log\\sessions\\127.0.0.1-a664d681-6449-4b12-a27a-364013383b1b', mode 'rb+' at 0x056A97B0>"
p4694
asbasbasbag100
(g116
g102
NtRp4695
(dp4696
g105
(dp4697
sg114
g3727
sg107
(lp4698
g100
(g121
g102
NtRp4699
(dp4700
g105
(dp4701
g125
g126
ssg114
g4695
sg107
(lp4702
S'session_filename'
p4703
asbag100
(g121
g102
NtRp4704
(dp4705
g105
(dp4706
g132
g133
ssg114
g4695
sg107
(lp4707
S':'
asbag100
(g121
g102
NtRp4708
(dp4709
g105
(dp4710
sg114
g4695
sg107
(lp4711
g100
(g101
g102
NtRp4712
(dp4713
g105
(dp4714
g113
I5
ssg114
g4708
sg107
(lp4715
S'C:\\Users\\matt\\Desktop\\web2py\\applications\\diet_exercise_log\\sessions\\127.0.0.1-a664d681-6449-4b12-a27a-364013383b1b'
p4716
asbasbasbag100
(g116
g102
NtRp4717
(dp4718
g105
(dp4719
sg114
g3727
sg107
(lp4720
g100
(g121
g102
NtRp4721
(dp4722
g105
(dp4723
g125
g126
ssg114
g4717
sg107
(lp4724
S'session_id'
p4725
asbag100
(g121
g102
NtRp4726
(dp4727
g105
(dp4728
g132
g133
ssg114
g4717
sg107
(lp4729
S':'
asbag100
(g121
g102
NtRp4730
(dp4731
g105
(dp4732
sg114
g4717
sg107
(lp4733
g100
(g101
g102
NtRp4734
(dp4735
g105
(dp4736
g113
I5
ssg114
g4730
sg107
(lp4737
g518
asbasbasbag100
(g116
g102
NtRp4738
(dp4739
g105
(dp4740
sg114
g3727
sg107
(lp4741
g100
(g121
g102
NtRp4742
(dp4743
g105
(dp4744
g125
g126
ssg114
g4738
sg107
(lp4745
S'session_id_name'
p4746
asbag100
(g121
g102
NtRp4747
(dp4748
g105
(dp4749
g132
g133
ssg114
g4738
sg107
(lp4750
S':'
asbag100
(g121
g102
NtRp4751
(dp4752
g105
(dp4753
sg114
g4738
sg107
(lp4754
g100
(g101
g102
NtRp4755
(dp4756
g105
(dp4757
g113
I5
ssg114
g4751
sg107
(lp4758
g3784
asbasbasbag100
(g116
g102
NtRp4759
(dp4760
g105
(dp4761
sg114
g3727
sg107
(lp4762
g100
(g121
g102
NtRp4763
(dp4764
g105
(dp4765
g125
g126
ssg114
g4759
sg107
(lp4766
S'session_locked'
p4767
asbag100
(g121
g102
NtRp4768
(dp4769
g105
(dp4770
g132
g133
ssg114
g4759
sg107
(lp4771
S':'
asbag100
(g121
g102
NtRp4772
(dp4773
g105
(dp4774
sg114
g4759
sg107
(lp4775
g100
(g101
g102
NtRp4776
(dp4777
g105
(dp4778
g113
I5
ssg114
g4772
sg107
(lp4779
g1833
asbasbasbag100
(g116
g102
NtRp4780
(dp4781
g105
(dp4782
sg114
g3727
sg107
(lp4783
g100
(g121
g102
NtRp4784
(dp4785
g105
(dp4786
g125
g126
ssg114
g4780
sg107
(lp4787
S'session_new'
p4788
asbag100
(g121
g102
NtRp4789
(dp4790
g105
(dp4791
g132
g133
ssg114
g4780
sg107
(lp4792
S':'
asbag100
(g121
g102
NtRp4793
(dp4794
g105
(dp4795
sg114
g4780
sg107
(lp4796
g100
(g101
g102
NtRp4797
(dp4798
g105
(dp4799
g113
I5
ssg114
g4793
sg107
(lp4800
g143
asbasbasbag100
(g116
g102
NtRp4801
(dp4802
g105
(dp4803
sg114
g3727
sg107
(lp4804
g100
(g121
g102
NtRp4805
(dp4806
g105
(dp4807
g125
g126
ssg114
g4801
sg107
(lp4808
S'session_storage_type'
p4809
asbag100
(g121
g102
NtRp4810
(dp4811
g105
(dp4812
g132
g133
ssg114
g4801
sg107
(lp4813
S':'
asbag100
(g121
g102
NtRp4814
(dp4815
g105
(dp4816
sg114
g4801
sg107
(lp4817
g100
(g101
g102
NtRp4818
(dp4819
g105
(dp4820
g113
I5
ssg114
g4814
sg107
(lp4821
g3284
asbasbasbag100
(g116
g102
NtRp4822
(dp4823
g105
(dp4824
sg114
g3727
sg107
(lp4825
g100
(g121
g102
NtRp4826
(dp4827
g105
(dp4828
g125
g126
ssg114
g4822
sg107
(lp4829
S'status'
p4830
asbag100
(g121
g102
NtRp4831
(dp4832
g105
(dp4833
g132
g133
ssg114
g4822
sg107
(lp4834
S':'
asbag100
(g121
g102
NtRp4835
(dp4836
g105
(dp4837
sg114
g4822
sg107
(lp4838
g100
(g101
g102
NtRp4839
(dp4840
g105
(dp4841
g113
I5
ssg114
g4835
sg107
(lp4842
S'200'
p4843
asbasbasbag100
(g116
g102
NtRp4844
(dp4845
g105
(dp4846
sg114
g3727
sg107
(lp4847
g100
(g121
g102
NtRp4848
(dp4849
g105
(dp4850
g125
g126
ssg114
g4844
sg107
(lp4851
S'subtitle'
p4852
asbag100
(g121
g102
NtRp4853
(dp4854
g105
(dp4855
g132
g133
ssg114
g4844
sg107
(lp4856
S':'
asbag100
(g121
g102
NtRp4857
(dp4858
g105
(dp4859
sg114
g4844
sg107
(lp4860
g100
(g101
g102
NtRp4861
(dp4862
g105
(dp4863
g113
I5
ssg114
g4857
sg107
(lp4864
cgluon.languages
lazyT_unpickle
p4865
(S's \x00\x00\x00simple analysis for your health!'
tRp4866
asbasbasbag100
(g116
g102
NtRp4867
(dp4868
g105
(dp4869
sg114
g3727
sg107
(lp4870
g100
(g121
g102
NtRp4871
(dp4872
g105
(dp4873
g125
g126
ssg114
g4867
sg107
(lp4874
S'title'
p4875
asbag100
(g121
g102
NtRp4876
(dp4877
g105
(dp4878
g132
g133
ssg114
g4867
sg107
(lp4879
S':'
asbag100
(g121
g102
NtRp4880
(dp4881
g105
(dp4882
sg114
g4867
sg107
(lp4883
g100
(g101
g102
NtRp4884
(dp4885
g105
(dp4886
g113
I5
ssg114
g4880
sg107
(lp4887
S'Diet Exercise Log'
p4888
asbasbasbag100
(g116
g102
NtRp4889
(dp4890
g105
(dp4891
sg114
g3727
sg107
(lp4892
g100
(g121
g102
NtRp4893
(dp4894
g105
(dp4895
g125
g126
ssg114
g4889
sg107
(lp4896
S'view'
p4897
asbag100
(g121
g102
NtRp4898
(dp4899
g105
(dp4900
g132
g133
ssg114
g4889
sg107
(lp4901
S':'
asbag100
(g121
g102
NtRp4902
(dp4903
g105
(dp4904
sg114
g4889
sg107
(lp4905
g100
(g101
g102
NtRp4906
(dp4907
g105
(dp4908
g113
I5
ssg114
g4902
sg107
(lp4909
S'default/add_diet_item.html'
p4910
asbasbasbasbasbsS'locals'
p4911
(dp4912
g57
S'<addinfourl at 91960904 whose fp = <socket._fileobject object>>'
p4913
sg6
S'504'
p4914
sg59
S'<httplib.HTTPMessage instance>'
p4915
sS'self'
p4916
S'<urllib2.HTTPDefaultErrorHandler instance>'
p4917
sS'req'
p4918
S'<urllib2.Request instance>'
p4919
sg53
S"'Gateway Timeout'"
p4920
sssS'traceback'
p4921
S'Traceback (most recent call last):\n  File "gluon/restricted.py", line 212, in restricted\n  File "C:\\Users\\matt\\Desktop\\web2py\\applications\\diet_exercise_log\\controllers/default.py", line 104, in <module>\n  File "gluon/globals.py", line 188, in <lambda>\n  File "gluon/tools.py", line 2911, in f\n  File "C:\\Users\\matt\\Desktop\\web2py\\applications\\diet_exercise_log\\controllers/default.py", line 45, in add_diet_item\n  File "urllib2.pyc", line 126, in urlopen\n  File "urllib2.pyc", line 397, in open\n  File "urllib2.pyc", line 510, in http_response\n  File "urllib2.pyc", line 435, in error\n  File "urllib2.pyc", line 369, in _call_chain\n  File "urllib2.pyc", line 518, in http_error_default\nHTTPError: HTTP Error 504: Gateway Timeout\n'
p4922
s.